	.text
	.syntax unified
	.eabi_attribute	67, "2.09"	@ Tag_conformance
	.eabi_attribute	6, 1	@ Tag_CPU_arch
	.eabi_attribute	8, 1	@ Tag_ARM_ISA_use
	.eabi_attribute	15, 1	@ Tag_ABI_PCS_RW_data
	.eabi_attribute	16, 1	@ Tag_ABI_PCS_RO_data
	.eabi_attribute	17, 2	@ Tag_ABI_PCS_GOT_use
	.eabi_attribute	20, 1	@ Tag_ABI_FP_denormal
	.eabi_attribute	21, 1	@ Tag_ABI_FP_exceptions
	.eabi_attribute	23, 3	@ Tag_ABI_FP_number_model
	.eabi_attribute	34, 1	@ Tag_CPU_unaligned_access
	.eabi_attribute	24, 1	@ Tag_ABI_align_needed
	.eabi_attribute	25, 1	@ Tag_ABI_align_preserved
	.eabi_attribute	28, 1	@ Tag_ABI_VFP_args
	.eabi_attribute	38, 1	@ Tag_ABI_FP_16bit_format
	.eabi_attribute	14, 0	@ Tag_ABI_PCS_R9_use
	.file	"<stdin>"
	.globl	makeNIST_P192L
	.align	2
	.type	makeNIST_P192L,%function
makeNIST_P192L:                         @ @makeNIST_P192L
	.fnstart
@ BB#0:
	mvn	r1, #0
	mvn	r2, #1
	str	r1, [r0]
	stmib	r0, {r1, r2}
	str	r1, [r0, #12]
	str	r1, [r0, #16]
	str	r1, [r0, #20]
	mov	pc, lr
.Lfunc_end0:
	.size	makeNIST_P192L, .Lfunc_end0-makeNIST_P192L
	.cantunwind
	.fnend

	.globl	mcl_fpDbl_mod_NIST_P192L
	.align	2
	.type	mcl_fpDbl_mod_NIST_P192L,%function
mcl_fpDbl_mod_NIST_P192L:               @ @mcl_fpDbl_mod_NIST_P192L
	.fnstart
@ BB#0:
	.save	{r4, r5, r6, r7, r8, r9, r10, r11, lr}
	push	{r4, r5, r6, r7, r8, r9, r10, r11, lr}
	.pad	#8
	sub	sp, sp, #8
	add	lr, r1, #24
	ldr	r2, [r1, #40]
	ldr	r3, [r1, #44]
	ldr	r7, [r1, #16]
	ldr	r8, [r1, #20]
	ldm	lr, {r4, r5, r6, lr}
	ldm	r1, {r1, r9, r10, r12}
	adds	r11, r4, r1
	adcs	r9, r5, r9
	adcs	r10, r6, r10
	adcs	r1, lr, r12
	str	r1, [sp, #4]            @ 4-byte Spill
	adcs	r1, r2, r7
	mov	r7, #0
	str	r1, [sp]                @ 4-byte Spill
	adcs	r8, r3, r8
	mov	r1, #0
	adcs	r1, r1, #0
	adc	r12, r7, #0
	ldr	r7, [sp, #4]            @ 4-byte Reload
	adds	r11, r11, r2
	adcs	r9, r9, r3
	adcs	r4, r10, r4
	adcs	r5, r7, r5
	ldr	r7, [sp]                @ 4-byte Reload
	adcs	r6, r7, r6
	adcs	r7, r8, lr
	adcs	r1, r1, #0
	adc	r12, r12, #0
	adds	lr, r4, r2
	adcs	r3, r5, r3
	adcs	r6, r6, #0
	adcs	r7, r7, #0
	adcs	r1, r1, #0
	adc	r5, r12, #0
	adds	r12, r1, r11
	adcs	r11, r5, r9
	adcs	r10, r1, lr
	mov	r1, #0
	adcs	r8, r5, r3
	adcs	lr, r6, #0
	adcs	r2, r7, #0
	adc	r9, r1, #0
	adds	r7, r12, #1
	str	r2, [sp, #4]            @ 4-byte Spill
	adcs	r6, r11, #0
	adcs	r3, r10, #1
	adcs	r5, r8, #0
	adcs	r1, lr, #0
	adcs	r2, r2, #0
	sbc	r4, r9, #0
	ands	r4, r4, #1
	movne	r7, r12
	movne	r6, r11
	movne	r3, r10
	cmp	r4, #0
	movne	r5, r8
	movne	r1, lr
	str	r7, [r0]
	str	r6, [r0, #4]
	str	r3, [r0, #8]
	str	r5, [r0, #12]
	str	r1, [r0, #16]
	ldr	r1, [sp, #4]            @ 4-byte Reload
	movne	r2, r1
	str	r2, [r0, #20]
	add	sp, sp, #8
	pop	{r4, r5, r6, r7, r8, r9, r10, r11, lr}
	mov	pc, lr
.Lfunc_end1:
	.size	mcl_fpDbl_mod_NIST_P192L, .Lfunc_end1-mcl_fpDbl_mod_NIST_P192L
	.cantunwind
	.fnend

	.globl	mcl_fp_sqr_NIST_P192L
	.align	2
	.type	mcl_fp_sqr_NIST_P192L,%function
mcl_fp_sqr_NIST_P192L:                  @ @mcl_fp_sqr_NIST_P192L
	.fnstart
@ BB#0:
	.save	{r4, r5, r6, r7, r8, r9, r10, r11, lr}
	push	{r4, r5, r6, r7, r8, r9, r10, r11, lr}
	.pad	#60
	sub	sp, sp, #60
	mov	r8, r0
	add	r0, sp, #12
	bl	mcl_fpDbl_sqrPre6L(PLT)
	add	r12, sp, #12
	ldr	lr, [sp, #48]
	ldr	r2, [sp, #44]
	ldr	r3, [sp, #40]
	mov	r4, #0
	ldm	r12, {r0, r1, r5, r6, r12}
	ldr	r7, [sp, #36]
	adds	r0, r7, r0
	str	r0, [sp, #8]            @ 4-byte Spill
	adcs	r0, r3, r1
	mov	r1, #0
	adcs	r10, r2, r5
	str	r0, [sp, #4]            @ 4-byte Spill
	ldr	r0, [sp, #52]
	ldr	r5, [sp, #32]
	adcs	r11, lr, r6
	ldr	r6, [sp, #56]
	adcs	r9, r0, r12
	adcs	r5, r6, r5
	adcs	r1, r1, #0
	adc	r12, r4, #0
	ldr	r4, [sp, #8]            @ 4-byte Reload
	adds	r4, r4, r0
	str	r4, [sp, #8]            @ 4-byte Spill
	ldr	r4, [sp, #4]            @ 4-byte Reload
	adcs	r4, r4, r6
	adcs	r7, r10, r7
	adcs	r3, r11, r3
	adcs	r2, r9, r2
	adcs	r5, r5, lr
	adcs	r1, r1, #0
	adc	r12, r12, #0
	adds	lr, r7, r0
	ldr	r0, [sp, #8]            @ 4-byte Reload
	adcs	r3, r3, r6
	adcs	r2, r2, #0
	adcs	r7, r5, #0
	adcs	r1, r1, #0
	adc	r6, r12, #0
	adds	r5, r1, r0
	mov	r0, #0
	adcs	r11, r6, r4
	adcs	r10, r1, lr
	adcs	r12, r6, r3
	adcs	lr, r2, #0
	adcs	r4, r7, #0
	adc	r9, r0, #0
	adds	r7, r5, #1
	str	r4, [sp, #8]            @ 4-byte Spill
	adcs	r2, r11, #0
	adcs	r3, r10, #1
	adcs	r6, r12, #0
	adcs	r1, lr, #0
	adcs	r0, r4, #0
	sbc	r4, r9, #0
	ands	r4, r4, #1
	movne	r7, r5
	movne	r2, r11
	movne	r3, r10
	cmp	r4, #0
	movne	r6, r12
	movne	r1, lr
	str	r7, [r8]
	str	r2, [r8, #4]
	str	r3, [r8, #8]
	str	r6, [r8, #12]
	str	r1, [r8, #16]
	ldr	r1, [sp, #8]            @ 4-byte Reload
	movne	r0, r1
	str	r0, [r8, #20]
	add	sp, sp, #60
	pop	{r4, r5, r6, r7, r8, r9, r10, r11, lr}
	mov	pc, lr
.Lfunc_end2:
	.size	mcl_fp_sqr_NIST_P192L, .Lfunc_end2-mcl_fp_sqr_NIST_P192L
	.cantunwind
	.fnend

	.globl	mcl_fp_mulNIST_P192L
	.align	2
	.type	mcl_fp_mulNIST_P192L,%function
mcl_fp_mulNIST_P192L:                   @ @mcl_fp_mulNIST_P192L
	.fnstart
@ BB#0:
	.save	{r4, r5, r6, r7, r8, r9, r10, r11, lr}
	push	{r4, r5, r6, r7, r8, r9, r10, r11, lr}
	.pad	#60
	sub	sp, sp, #60
	mov	r8, r0
	add	r0, sp, #12
	bl	mcl_fpDbl_mulPre6L(PLT)
	add	r12, sp, #12
	ldr	lr, [sp, #48]
	ldr	r2, [sp, #44]
	ldr	r3, [sp, #40]
	mov	r4, #0
	ldm	r12, {r0, r1, r5, r6, r12}
	ldr	r7, [sp, #36]
	adds	r0, r7, r0
	str	r0, [sp, #8]            @ 4-byte Spill
	adcs	r0, r3, r1
	mov	r1, #0
	adcs	r10, r2, r5
	str	r0, [sp, #4]            @ 4-byte Spill
	ldr	r0, [sp, #52]
	ldr	r5, [sp, #32]
	adcs	r11, lr, r6
	ldr	r6, [sp, #56]
	adcs	r9, r0, r12
	adcs	r5, r6, r5
	adcs	r1, r1, #0
	adc	r12, r4, #0
	ldr	r4, [sp, #8]            @ 4-byte Reload
	adds	r4, r4, r0
	str	r4, [sp, #8]            @ 4-byte Spill
	ldr	r4, [sp, #4]            @ 4-byte Reload
	adcs	r4, r4, r6
	adcs	r7, r10, r7
	adcs	r3, r11, r3
	adcs	r2, r9, r2
	adcs	r5, r5, lr
	adcs	r1, r1, #0
	adc	r12, r12, #0
	adds	lr, r7, r0
	ldr	r0, [sp, #8]            @ 4-byte Reload
	adcs	r3, r3, r6
	adcs	r2, r2, #0
	adcs	r7, r5, #0
	adcs	r1, r1, #0
	adc	r6, r12, #0
	adds	r5, r1, r0
	mov	r0, #0
	adcs	r11, r6, r4
	adcs	r10, r1, lr
	adcs	r12, r6, r3
	adcs	lr, r2, #0
	adcs	r4, r7, #0
	adc	r9, r0, #0
	adds	r7, r5, #1
	str	r4, [sp, #8]            @ 4-byte Spill
	adcs	r2, r11, #0
	adcs	r3, r10, #1
	adcs	r6, r12, #0
	adcs	r1, lr, #0
	adcs	r0, r4, #0
	sbc	r4, r9, #0
	ands	r4, r4, #1
	movne	r7, r5
	movne	r2, r11
	movne	r3, r10
	cmp	r4, #0
	movne	r6, r12
	movne	r1, lr
	str	r7, [r8]
	str	r2, [r8, #4]
	str	r3, [r8, #8]
	str	r6, [r8, #12]
	str	r1, [r8, #16]
	ldr	r1, [sp, #8]            @ 4-byte Reload
	movne	r0, r1
	str	r0, [r8, #20]
	add	sp, sp, #60
	pop	{r4, r5, r6, r7, r8, r9, r10, r11, lr}
	mov	pc, lr
.Lfunc_end3:
	.size	mcl_fp_mulNIST_P192L, .Lfunc_end3-mcl_fp_mulNIST_P192L
	.cantunwind
	.fnend

	.globl	mcl_fpDbl_mod_NIST_P521L
	.align	2
	.type	mcl_fpDbl_mod_NIST_P521L,%function
mcl_fpDbl_mod_NIST_P521L:               @ @mcl_fpDbl_mod_NIST_P521L
	.fnstart
@ BB#0:
	.save	{r4, r5, r6, r7, r8, r9, r10, r11, lr}
	push	{r4, r5, r6, r7, r8, r9, r10, r11, lr}
	.pad	#44
	sub	sp, sp, #44
	ldr	r6, [r1, #64]
	mov	r5, #255
	ldr	r3, [r1, #72]
	ldr	r2, [r1, #76]
	mov	r9, r0
	orr	r5, r5, #256
	and	r5, r6, r5
	lsr	r6, r6, #9
	lsr	r7, r3, #9
	str	r5, [sp, #40]           @ 4-byte Spill
	ldr	r5, [r1, #68]
	orr	r12, r7, r2, lsl #23
	lsr	r2, r2, #9
	lsr	r4, r5, #9
	orr	r6, r6, r5, lsl #23
	ldr	r5, [r1]
	orr	r3, r4, r3, lsl #23
	ldmib	r1, {r4, r7, lr}
	adds	r5, r6, r5
	ldr	r6, [r1, #36]
	str	r5, [sp, #36]           @ 4-byte Spill
	ldr	r5, [r1, #80]
	adcs	r3, r3, r4
	str	r3, [sp, #32]           @ 4-byte Spill
	adcs	r7, r12, r7
	ldr	r3, [r1, #84]
	str	r7, [sp, #28]           @ 4-byte Spill
	ldr	r7, [r1, #88]
	orr	r2, r2, r5, lsl #23
	lsr	r5, r5, #9
	adcs	r12, r2, lr
	ldr	r2, [r1, #16]
	orr	r4, r5, r3, lsl #23
	lsr	r3, r3, #9
	orr	r3, r3, r7, lsl #23
	lsr	r5, r7, #9
	ldr	r7, [r1, #40]
	adcs	r2, r4, r2
	ldr	r4, [r1, #24]
	str	r2, [sp, #24]           @ 4-byte Spill
	ldr	r2, [r1, #20]
	adcs	r2, r3, r2
	str	r2, [sp, #20]           @ 4-byte Spill
	ldr	r2, [r1, #92]
	orr	r3, r5, r2, lsl #23
	ldr	r5, [r1, #28]
	lsr	r2, r2, #9
	adcs	lr, r3, r4
	ldr	r3, [r1, #96]
	ldr	r4, [r1, #44]
	orr	r2, r2, r3, lsl #23
	adcs	r2, r2, r5
	ldr	r5, [r1, #32]
	str	r2, [sp, #16]           @ 4-byte Spill
	lsr	r2, r3, #9
	ldr	r3, [r1, #100]
	orr	r2, r2, r3, lsl #23
	adcs	r2, r2, r5
	ldr	r5, [r1, #48]
	str	r2, [sp, #12]           @ 4-byte Spill
	lsr	r2, r3, #9
	ldr	r3, [r1, #104]
	orr	r2, r2, r3, lsl #23
	adcs	r0, r2, r6
	lsr	r2, r3, #9
	ldr	r3, [r1, #108]
	ldr	r6, [r1, #52]
	str	r0, [sp, #8]            @ 4-byte Spill
	orr	r2, r2, r3, lsl #23
	adcs	r7, r2, r7
	lsr	r2, r3, #9
	ldr	r3, [r1, #112]
	orr	r2, r2, r3, lsl #23
	lsr	r3, r3, #9
	adcs	r2, r2, r4
	ldr	r4, [r1, #116]
	orr	r3, r3, r4, lsl #23
	lsr	r4, r4, #9
	adcs	r3, r3, r5
	ldr	r5, [r1, #120]
	orr	r4, r4, r5, lsl #23
	adcs	r11, r4, r6
	lsr	r4, r5, #9
	ldr	r5, [r1, #124]
	ldr	r6, [r1, #56]
	orr	r4, r4, r5, lsl #23
	adcs	r10, r4, r6
	lsr	r4, r5, #9
	ldr	r5, [r1, #128]
	ldr	r1, [r1, #60]
	orr	r4, r4, r5, lsl #23
	adcs	r8, r4, r1
	ldr	r4, [sp, #40]           @ 4-byte Reload
	lsr	r1, r5, #9
	ldr	r5, [sp, #36]           @ 4-byte Reload
	adc	r1, r1, r4
	mov	r4, #1
	and	r4, r4, r1, lsr #9
	adds	r5, r4, r5
	ldr	r4, [sp, #32]           @ 4-byte Reload
	str	r5, [sp, #40]           @ 4-byte Spill
	adcs	r6, r4, #0
	ldr	r4, [sp, #28]           @ 4-byte Reload
	str	r6, [sp, #36]           @ 4-byte Spill
	adcs	r0, r4, #0
	and	r4, r6, r5
	ldr	r5, [sp, #24]           @ 4-byte Reload
	str	r0, [sp, #32]           @ 4-byte Spill
	and	r4, r4, r0
	adcs	r0, r12, #0
	str	r0, [sp, #28]           @ 4-byte Spill
	and	r6, r4, r0
	adcs	r0, r5, #0
	and	r4, r6, r0
	ldr	r6, [sp, #20]           @ 4-byte Reload
	str	r0, [sp, #24]           @ 4-byte Spill
	adcs	r0, r6, #0
	ldr	r6, [sp, #16]           @ 4-byte Reload
	str	r0, [sp, #20]           @ 4-byte Spill
	and	r5, r4, r0
	adcs	r0, lr, #0
	and	r5, r5, r0
	str	r0, [sp, #4]            @ 4-byte Spill
	ldr	r0, [sp, #8]            @ 4-byte Reload
	adcs	lr, r6, #0
	and	r6, r5, lr
	ldr	r5, [sp, #12]           @ 4-byte Reload
	adcs	r5, r5, #0
	and	r12, r6, r5
	adcs	r6, r0, #0
	adcs	r7, r7, #0
	and	r4, r12, r6
	adcs	r2, r2, #0
	and	r4, r4, r7
	adcs	r3, r3, #0
	and	r4, r4, r2
	adcs	r0, r11, #0
	and	r4, r4, r3
	adcs	r10, r10, #0
	and	r4, r4, r0
	adcs	r11, r8, #0
	and	r4, r4, r10
	adc	r8, r1, #0
	ldr	r1, .LCPI4_0
	and	r4, r4, r11
	orr	r1, r8, r1
	and	r1, r4, r1
	cmn	r1, #1
	beq	.LBB4_2
@ BB#1:                                 @ %nonzero
	ldr	r1, [sp, #40]           @ 4-byte Reload
	str	r1, [r9]
	ldr	r1, [sp, #36]           @ 4-byte Reload
	str	r1, [r9, #4]
	ldr	r1, [sp, #32]           @ 4-byte Reload
	str	r1, [r9, #8]
	ldr	r1, [sp, #28]           @ 4-byte Reload
	str	r1, [r9, #12]
	ldr	r1, [sp, #24]           @ 4-byte Reload
	str	r1, [r9, #16]
	ldr	r1, [sp, #20]           @ 4-byte Reload
	str	r1, [r9, #20]
	ldr	r1, [sp, #4]            @ 4-byte Reload
	str	r1, [r9, #24]
	add	r1, r9, #32
	str	lr, [r9, #28]
	stm	r1, {r5, r6, r7}
	add	r1, r9, #52
	str	r2, [r9, #44]
	str	r3, [r9, #48]
	stm	r1, {r0, r10, r11}
	mov	r1, #255
	orr	r1, r1, #256
	and	r1, r8, r1
	str	r1, [r9, #64]
	b	.LBB4_3
.LBB4_2:                                @ %zero
	mov	r0, r9
	mov	r1, #0
	mov	r2, #68
	bl	memset(PLT)
.LBB4_3:                                @ %zero
	add	sp, sp, #44
	pop	{r4, r5, r6, r7, r8, r9, r10, r11, lr}
	mov	pc, lr
	.align	2
@ BB#4:
.LCPI4_0:
	.long	4294966784              @ 0xfffffe00
.Lfunc_end4:
	.size	mcl_fpDbl_mod_NIST_P521L, .Lfunc_end4-mcl_fpDbl_mod_NIST_P521L
	.cantunwind
	.fnend

	.globl	mcl_fp_mulUnitPre1L
	.align	2
	.type	mcl_fp_mulUnitPre1L,%function
mcl_fp_mulUnitPre1L:                    @ @mcl_fp_mulUnitPre1L
	.fnstart
@ BB#0:
	ldr	r1, [r1]
	umull	r3, r12, r1, r2
	stm	r0, {r3, r12}
	mov	pc, lr
.Lfunc_end5:
	.size	mcl_fp_mulUnitPre1L, .Lfunc_end5-mcl_fp_mulUnitPre1L
	.cantunwind
	.fnend

	.globl	mcl_fpDbl_mulPre1L
	.align	2
	.type	mcl_fpDbl_mulPre1L,%function
mcl_fpDbl_mulPre1L:                     @ @mcl_fpDbl_mulPre1L
	.fnstart
@ BB#0:
	ldr	r1, [r1]
	ldr	r2, [r2]
	umull	r3, r12, r2, r1
	stm	r0, {r3, r12}
	mov	pc, lr
.Lfunc_end6:
	.size	mcl_fpDbl_mulPre1L, .Lfunc_end6-mcl_fpDbl_mulPre1L
	.cantunwind
	.fnend

	.globl	mcl_fpDbl_sqrPre1L
	.align	2
	.type	mcl_fpDbl_sqrPre1L,%function
mcl_fpDbl_sqrPre1L:                     @ @mcl_fpDbl_sqrPre1L
	.fnstart
@ BB#0:
	ldr	r1, [r1]
	umull	r2, r3, r1, r1
	stm	r0, {r2, r3}
	mov	pc, lr
.Lfunc_end7:
	.size	mcl_fpDbl_sqrPre1L, .Lfunc_end7-mcl_fpDbl_sqrPre1L
	.cantunwind
	.fnend

	.globl	mcl_fp_mont1L
	.align	2
	.type	mcl_fp_mont1L,%function
mcl_fp_mont1L:                          @ @mcl_fp_mont1L
	.fnstart
@ BB#0:
	.save	{r4, r5, r6, lr}
	push	{r4, r5, r6, lr}
	ldr	r12, [r2]
	ldr	r1, [r1]
	mov	r6, #0
	umull	lr, r2, r1, r12
	ldr	r12, [r3, #-4]
	ldr	r3, [r3]
	mul	r1, lr, r12
	umull	r12, r4, r1, r3
	adds	r5, r12, lr
	adcs	r5, r4, r2
	umlal	lr, r2, r1, r3
	adc	r6, r6, #0
	subs	r1, r2, r3
	sbc	r3, r6, #0
	tst	r3, #1
	movne	r1, r2
	str	r1, [r0]
	pop	{r4, r5, r6, lr}
	mov	pc, lr
.Lfunc_end8:
	.size	mcl_fp_mont1L, .Lfunc_end8-mcl_fp_mont1L
	.cantunwind
	.fnend

	.globl	mcl_fp_montNF1L
	.align	2
	.type	mcl_fp_montNF1L,%function
mcl_fp_montNF1L:                        @ @mcl_fp_montNF1L
	.fnstart
@ BB#0:
	.save	{r11, lr}
	push	{r11, lr}
	ldr	r12, [r2]
	ldr	r1, [r1]
	umull	lr, r2, r1, r12
	ldr	r12, [r3, #-4]
	ldr	r3, [r3]
	mul	r1, lr, r12
	umlal	lr, r2, r1, r3
	sub	r1, r2, r3
	cmp	r1, #0
	movge	r2, r1
	str	r2, [r0]
	pop	{r11, lr}
	mov	pc, lr
.Lfunc_end9:
	.size	mcl_fp_montNF1L, .Lfunc_end9-mcl_fp_montNF1L
	.cantunwind
	.fnend

	.globl	mcl_fp_montRed1L
	.align	2
	.type	mcl_fp_montRed1L,%function
mcl_fp_montRed1L:                       @ @mcl_fp_montRed1L
	.fnstart
@ BB#0:
	.save	{r4, r5, r6, lr}
	push	{r4, r5, r6, lr}
	ldr	r12, [r2, #-4]
	ldr	r3, [r1]
	ldr	r2, [r2]
	ldr	r1, [r1, #4]
	mov	r6, #0
	mul	lr, r3, r12
	umull	r12, r4, lr, r2
	adds	r5, r3, r12
	adcs	r5, r1, r4
	umlal	r3, r1, lr, r2
	adc	r6, r6, #0
	subs	r2, r1, r2
	sbc	r3, r6, #0
	tst	r3, #1
	movne	r2, r1
	str	r2, [r0]
	pop	{r4, r5, r6, lr}
	mov	pc, lr
.Lfunc_end10:
	.size	mcl_fp_montRed1L, .Lfunc_end10-mcl_fp_montRed1L
	.cantunwind
	.fnend

	.globl	mcl_fp_addPre1L
	.align	2
	.type	mcl_fp_addPre1L,%function
mcl_fp_addPre1L:                        @ @mcl_fp_addPre1L
	.fnstart
@ BB#0:
	ldr	r1, [r1]
	ldr	r2, [r2]
	adds	r1, r2, r1
	str	r1, [r0]
	mov	r0, #0
	adc	r0, r0, #0
	mov	pc, lr
.Lfunc_end11:
	.size	mcl_fp_addPre1L, .Lfunc_end11-mcl_fp_addPre1L
	.cantunwind
	.fnend

	.globl	mcl_fp_subPre1L
	.align	2
	.type	mcl_fp_subPre1L,%function
mcl_fp_subPre1L:                        @ @mcl_fp_subPre1L
	.fnstart
@ BB#0:
	ldr	r2, [r2]
	ldr	r1, [r1]
	subs	r1, r1, r2
	str	r1, [r0]
	mov	r0, #0
	sbc	r0, r0, #0
	and	r0, r0, #1
	mov	pc, lr
.Lfunc_end12:
	.size	mcl_fp_subPre1L, .Lfunc_end12-mcl_fp_subPre1L
	.cantunwind
	.fnend

	.globl	mcl_fp_shr1_1L
	.align	2
	.type	mcl_fp_shr1_1L,%function
mcl_fp_shr1_1L:                         @ @mcl_fp_shr1_1L
	.fnstart
@ BB#0:
	ldr	r1, [r1]
	lsr	r1, r1, #1
	str	r1, [r0]
	mov	pc, lr
.Lfunc_end13:
	.size	mcl_fp_shr1_1L, .Lfunc_end13-mcl_fp_shr1_1L
	.cantunwind
	.fnend

	.globl	mcl_fp_add1L
	.align	2
	.type	mcl_fp_add1L,%function
mcl_fp_add1L:                           @ @mcl_fp_add1L
	.fnstart
@ BB#0:
	ldr	r1, [r1]
	ldr	r2, [r2]
	ldr	r3, [r3]
	adds	r1, r2, r1
	mov	r2, #0
	str	r1, [r0]
	adc	r2, r2, #0
	subs	r1, r1, r3
	sbc	r2, r2, #0
	tst	r2, #1
	streq	r1, [r0]
	mov	pc, lr
.Lfunc_end14:
	.size	mcl_fp_add1L, .Lfunc_end14-mcl_fp_add1L
	.cantunwind
	.fnend

	.globl	mcl_fp_addNF1L
	.align	2
	.type	mcl_fp_addNF1L,%function
mcl_fp_addNF1L:                         @ @mcl_fp_addNF1L
	.fnstart
@ BB#0:
	ldr	r1, [r1]
	ldr	r2, [r2]
	add	r1, r2, r1
	ldr	r2, [r3]
	sub	r2, r1, r2
	cmp	r2, #0
	movlt	r2, r1
	str	r2, [r0]
	mov	pc, lr
.Lfunc_end15:
	.size	mcl_fp_addNF1L, .Lfunc_end15-mcl_fp_addNF1L
	.cantunwind
	.fnend

	.globl	mcl_fp_sub1L
	.align	2
	.type	mcl_fp_sub1L,%function
mcl_fp_sub1L:                           @ @mcl_fp_sub1L
	.fnstart
@ BB#0:
	ldr	r2, [r2]
	ldr	r1, [r1]
	subs	r1, r1, r2
	mov	r2, #0
	sbc	r2, r2, #0
	str	r1, [r0]
	tst	r2, #1
	ldrne	r2, [r3]
	addne	r1, r2, r1
	strne	r1, [r0]
	movne	pc, lr
	mov	pc, lr
.Lfunc_end16:
	.size	mcl_fp_sub1L, .Lfunc_end16-mcl_fp_sub1L
	.cantunwind
	.fnend

	.globl	mcl_fp_subNF1L
	.align	2
	.type	mcl_fp_subNF1L,%function
mcl_fp_subNF1L:                         @ @mcl_fp_subNF1L
	.fnstart
@ BB#0:
	ldr	r2, [r2]
	ldr	r1, [r1]
	sub	r1, r1, r2
	ldr	r2, [r3]
	cmp	r1, #0
	addlt	r1, r1, r2
	str	r1, [r0]
	mov	pc, lr
.Lfunc_end17:
	.size	mcl_fp_subNF1L, .Lfunc_end17-mcl_fp_subNF1L
	.cantunwind
	.fnend

	.globl	mcl_fpDbl_add1L
	.align	2
	.type	mcl_fpDbl_add1L,%function
mcl_fpDbl_add1L:                        @ @mcl_fpDbl_add1L
	.fnstart
@ BB#0:
	.save	{r11, lr}
	push	{r11, lr}
	ldm	r1, {r12, lr}
	ldm	r2, {r1, r2}
	ldr	r3, [r3]
	adds	r1, r1, r12
	str	r1, [r0]
	mov	r1, #0
	adcs	r2, r2, lr
	adc	r1, r1, #0
	subs	r3, r2, r3
	sbc	r1, r1, #0
	tst	r1, #1
	movne	r3, r2
	str	r3, [r0, #4]
	pop	{r11, lr}
	mov	pc, lr
.Lfunc_end18:
	.size	mcl_fpDbl_add1L, .Lfunc_end18-mcl_fpDbl_add1L
	.cantunwind
	.fnend

	.globl	mcl_fpDbl_sub1L
	.align	2
	.type	mcl_fpDbl_sub1L,%function
mcl_fpDbl_sub1L:                        @ @mcl_fpDbl_sub1L
	.fnstart
@ BB#0:
	.save	{r11, lr}
	push	{r11, lr}
	ldm	r2, {r12, lr}
	ldr	r2, [r1]
	ldr	r1, [r1, #4]
	ldr	r3, [r3]
	subs	r2, r2, r12
	str	r2, [r0]
	mov	r2, #0
	sbcs	r1, r1, lr
	sbc	r2, r2, #0
	tst	r2, #1
	addne	r1, r1, r3
	str	r1, [r0, #4]
	pop	{r11, lr}
	mov	pc, lr
.Lfunc_end19:
	.size	mcl_fpDbl_sub1L, .Lfunc_end19-mcl_fpDbl_sub1L
	.cantunwind
	.fnend

	.globl	mcl_fp_mulUnitPre2L
	.align	2
	.type	mcl_fp_mulUnitPre2L,%function
mcl_fp_mulUnitPre2L:                    @ @mcl_fp_mulUnitPre2L
	.fnstart
@ BB#0:
	.save	{r11, lr}
	push	{r11, lr}
	ldm	r1, {r3, lr}
	umull	r12, r1, r3, r2
	mov	r3, #0
	umlal	r1, r3, lr, r2
	str	r12, [r0]
	stmib	r0, {r1, r3}
	pop	{r11, lr}
	mov	pc, lr
.Lfunc_end20:
	.size	mcl_fp_mulUnitPre2L, .Lfunc_end20-mcl_fp_mulUnitPre2L
	.cantunwind
	.fnend

	.globl	mcl_fpDbl_mulPre2L
	.align	2
	.type	mcl_fpDbl_mulPre2L,%function
mcl_fpDbl_mulPre2L:                     @ @mcl_fpDbl_mulPre2L
	.fnstart
@ BB#0:
	.save	{r4, r5, r6, lr}
	push	{r4, r5, r6, lr}
	ldr	r3, [r2]
	ldm	r1, {r12, lr}
	ldr	r2, [r2, #4]
	mov	r5, #0
	umull	r1, r4, r12, r3
	umlal	r4, r5, lr, r3
	umull	r3, r6, r12, r2
	str	r1, [r0]
	mov	r1, #0
	adds	r3, r3, r4
	str	r3, [r0, #4]
	umull	r3, r4, lr, r2
	adcs	r2, r3, r5
	adc	r1, r1, #0
	adds	r2, r2, r6
	adc	r1, r1, r4
	str	r2, [r0, #8]
	str	r1, [r0, #12]
	pop	{r4, r5, r6, lr}
	mov	pc, lr
.Lfunc_end21:
	.size	mcl_fpDbl_mulPre2L, .Lfunc_end21-mcl_fpDbl_mulPre2L
	.cantunwind
	.fnend

	.globl	mcl_fpDbl_sqrPre2L
	.align	2
	.type	mcl_fpDbl_sqrPre2L,%function
mcl_fpDbl_sqrPre2L:                     @ @mcl_fpDbl_sqrPre2L
	.fnstart
@ BB#0:
	.save	{r4, r5, r6, lr}
	push	{r4, r5, r6, lr}
	ldr	r2, [r1]
	ldr	r1, [r1, #4]
	mov	r4, #0
	mov	lr, #0
	umull	r12, r3, r2, r2
	umull	r5, r6, r1, r2
	umlal	r3, r4, r1, r2
	str	r12, [r0]
	adds	r2, r3, r5
	umull	r3, r5, r1, r1
	adcs	r1, r4, r3
	str	r2, [r0, #4]
	adc	r3, lr, #0
	adds	r1, r1, r6
	adc	r3, r3, r5
	str	r1, [r0, #8]
	str	r3, [r0, #12]
	pop	{r4, r5, r6, lr}
	mov	pc, lr
.Lfunc_end22:
	.size	mcl_fpDbl_sqrPre2L, .Lfunc_end22-mcl_fpDbl_sqrPre2L
	.cantunwind
	.fnend

	.globl	mcl_fp_mont2L
	.align	2
	.type	mcl_fp_mont2L,%function
mcl_fp_mont2L:                          @ @mcl_fp_mont2L
	.fnstart
@ BB#0:
	.save	{r4, r5, r6, r7, r8, r9, r10, r11, lr}
	push	{r4, r5, r6, r7, r8, r9, r10, r11, lr}
	ldm	r1, {r12, lr}
	ldm	r2, {r1, r2}
	mov	r7, #0
	mov	r5, #0
	mov	r6, #0
	umull	r8, r9, r2, r12
	umull	r11, r4, r12, r1
	umlal	r9, r7, r2, lr
	umlal	r4, r5, lr, r1
	ldmda	r3, {r12, lr}
	ldr	r10, [r3, #4]
	mul	r1, r11, r12
	umull	r3, r2, r1, lr
	adds	r3, r3, r11
	mov	r3, #0
	umlal	r2, r3, r1, r10
	adcs	r1, r2, r4
	adcs	r2, r3, r5
	adc	r3, r6, #0
	adds	r1, r1, r8
	adcs	r8, r2, r9
	mul	r5, r1, r12
	adcs	r3, r3, r7
	umull	r7, r2, r5, lr
	adc	r4, r6, #0
	umlal	r2, r6, r5, r10
	adds	r1, r7, r1
	adcs	r1, r2, r8
	adcs	r2, r6, r3
	adc	r3, r4, #0
	subs	r7, r1, lr
	sbcs	r6, r2, r10
	sbc	r3, r3, #0
	ands	r3, r3, #1
	movne	r7, r1
	movne	r6, r2
	str	r7, [r0]
	str	r6, [r0, #4]
	pop	{r4, r5, r6, r7, r8, r9, r10, r11, lr}
	mov	pc, lr
.Lfunc_end23:
	.size	mcl_fp_mont2L, .Lfunc_end23-mcl_fp_mont2L
	.cantunwind
	.fnend

	.globl	mcl_fp_montNF2L
	.align	2
	.type	mcl_fp_montNF2L,%function
mcl_fp_montNF2L:                        @ @mcl_fp_montNF2L
	.fnstart
@ BB#0:
	.save	{r4, r5, r6, r7, r8, r9, r10, r11, lr}
	push	{r4, r5, r6, r7, r8, r9, r10, r11, lr}
	ldm	r2, {r12, lr}
	ldr	r11, [r1]
	ldr	r8, [r3, #-4]
	ldr	r7, [r3]
	ldr	r9, [r1, #4]
	ldr	r3, [r3, #4]
	umull	r4, r5, r11, r12
	mul	r6, r4, r8
	umull	r1, r10, r6, r7
	adds	r1, r1, r4
	mov	r4, #0
	umlal	r5, r4, r9, r12
	umull	r2, r12, r6, r3
	mov	r1, #0
	adcs	r2, r2, r5
	adc	r4, r4, #0
	adds	r2, r2, r10
	adc	r6, r4, r12
	umull	r5, r4, lr, r11
	adds	r2, r5, r2
	umlal	r4, r1, lr, r9
	adcs	r9, r4, r6
	mul	r5, r2, r8
	adc	lr, r1, #0
	umull	r1, r6, r5, r7
	umull	r4, r12, r5, r3
	adds	r1, r1, r2
	adcs	r1, r4, r9
	adc	r2, lr, #0
	adds	r1, r1, r6
	adc	r2, r2, r12
	subs	r7, r1, r7
	sbc	r3, r2, r3
	cmp	r3, #0
	movlt	r7, r1
	movlt	r3, r2
	str	r7, [r0]
	str	r3, [r0, #4]
	pop	{r4, r5, r6, r7, r8, r9, r10, r11, lr}
	mov	pc, lr
.Lfunc_end24:
	.size	mcl_fp_montNF2L, .Lfunc_end24-mcl_fp_montNF2L
	.cantunwind
	.fnend

	.globl	mcl_fp_montRed2L
	.align	2
	.type	mcl_fp_montRed2L,%function
mcl_fp_montRed2L:                       @ @mcl_fp_montRed2L
	.fnstart
@ BB#0:
	.save	{r4, r5, r6, r7, r8, r9, r10, lr}
	push	{r4, r5, r6, r7, r8, r9, r10, lr}
	ldr	r12, [r2, #-4]
	ldm	r2, {r3, lr}
	ldm	r1, {r2, r9, r10}
	ldr	r8, [r1, #12]
	mov	r5, #0
	mov	r7, #0
	mul	r6, r2, r12
	umull	r1, r4, r6, r3
	umlal	r4, r5, r6, lr
	adds	r1, r2, r1
	adcs	r1, r9, r4
	adcs	r9, r10, r5
	mul	r6, r1, r12
	adcs	r8, r8, #0
	umull	r2, r4, r6, r3
	adc	r5, r7, #0
	umlal	r4, r7, r6, lr
	adds	r1, r2, r1
	adcs	r1, r4, r9
	adcs	r2, r7, r8
	adc	r7, r5, #0
	subs	r3, r1, r3
	sbcs	r6, r2, lr
	sbc	r7, r7, #0
	ands	r7, r7, #1
	movne	r3, r1
	movne	r6, r2
	stm	r0, {r3, r6}
	pop	{r4, r5, r6, r7, r8, r9, r10, lr}
	mov	pc, lr
.Lfunc_end25:
	.size	mcl_fp_montRed2L, .Lfunc_end25-mcl_fp_montRed2L
	.cantunwind
	.fnend

	.globl	mcl_fp_addPre2L
	.align	2
	.type	mcl_fp_addPre2L,%function
mcl_fp_addPre2L:                        @ @mcl_fp_addPre2L
	.fnstart
@ BB#0:
	ldm	r1, {r3, r12}
	ldm	r2, {r1, r2}
	adds	r1, r1, r3
	adcs	r2, r2, r12
	stm	r0, {r1, r2}
	mov	r0, #0
	adc	r0, r0, #0
	mov	pc, lr
.Lfunc_end26:
	.size	mcl_fp_addPre2L, .Lfunc_end26-mcl_fp_addPre2L
	.cantunwind
	.fnend

	.globl	mcl_fp_subPre2L
	.align	2
	.type	mcl_fp_subPre2L,%function
mcl_fp_subPre2L:                        @ @mcl_fp_subPre2L
	.fnstart
@ BB#0:
	ldm	r2, {r3, r12}
	ldr	r2, [r1]
	ldr	r1, [r1, #4]
	subs	r2, r2, r3
	sbcs	r1, r1, r12
	str	r2, [r0]
	str	r1, [r0, #4]
	mov	r0, #0
	sbc	r0, r0, #0
	and	r0, r0, #1
	mov	pc, lr
.Lfunc_end27:
	.size	mcl_fp_subPre2L, .Lfunc_end27-mcl_fp_subPre2L
	.cantunwind
	.fnend

	.globl	mcl_fp_shr1_2L
	.align	2
	.type	mcl_fp_shr1_2L,%function
mcl_fp_shr1_2L:                         @ @mcl_fp_shr1_2L
	.fnstart
@ BB#0:
	ldr	r2, [r1]
	ldr	r1, [r1, #4]
	lsrs	r3, r1, #1
	lsr	r1, r1, #1
	rrx	r2, r2
	str	r2, [r0]
	str	r1, [r0, #4]
	mov	pc, lr
.Lfunc_end28:
	.size	mcl_fp_shr1_2L, .Lfunc_end28-mcl_fp_shr1_2L
	.cantunwind
	.fnend

	.globl	mcl_fp_add2L
	.align	2
	.type	mcl_fp_add2L,%function
mcl_fp_add2L:                           @ @mcl_fp_add2L
	.fnstart
@ BB#0:
	.save	{r4, lr}
	push	{r4, lr}
	ldm	r1, {r12, lr}
	ldm	r2, {r1, r2}
	adds	r12, r1, r12
	mov	r1, #0
	adcs	r2, r2, lr
	str	r12, [r0]
	str	r2, [r0, #4]
	adc	lr, r1, #0
	ldm	r3, {r1, r4}
	subs	r3, r12, r1
	sbcs	r2, r2, r4
	sbc	r1, lr, #0
	tst	r1, #1
	streq	r3, [r0]
	streq	r2, [r0, #4]
	pop	{r4, lr}
	mov	pc, lr
.Lfunc_end29:
	.size	mcl_fp_add2L, .Lfunc_end29-mcl_fp_add2L
	.cantunwind
	.fnend

	.globl	mcl_fp_addNF2L
	.align	2
	.type	mcl_fp_addNF2L,%function
mcl_fp_addNF2L:                         @ @mcl_fp_addNF2L
	.fnstart
@ BB#0:
	.save	{r4, lr}
	push	{r4, lr}
	ldm	r1, {r12, lr}
	ldm	r2, {r1, r2}
	adds	r1, r1, r12
	adc	r4, r2, lr
	ldm	r3, {r12, lr}
	subs	r3, r1, r12
	sbc	r2, r4, lr
	cmp	r2, #0
	movlt	r3, r1
	movlt	r2, r4
	str	r3, [r0]
	str	r2, [r0, #4]
	pop	{r4, lr}
	mov	pc, lr
.Lfunc_end30:
	.size	mcl_fp_addNF2L, .Lfunc_end30-mcl_fp_addNF2L
	.cantunwind
	.fnend

	.globl	mcl_fp_sub2L
	.align	2
	.type	mcl_fp_sub2L,%function
mcl_fp_sub2L:                           @ @mcl_fp_sub2L
	.fnstart
@ BB#0:
	.save	{r4, lr}
	push	{r4, lr}
	ldm	r2, {r12, lr}
	ldm	r1, {r2, r4}
	subs	r1, r2, r12
	sbcs	r2, r4, lr
	mov	r4, #0
	sbc	r4, r4, #0
	stm	r0, {r1, r2}
	tst	r4, #1
	popeq	{r4, lr}
	moveq	pc, lr
	ldr	r4, [r3]
	ldr	r3, [r3, #4]
	adds	r1, r4, r1
	adc	r2, r3, r2
	stm	r0, {r1, r2}
	pop	{r4, lr}
	mov	pc, lr
.Lfunc_end31:
	.size	mcl_fp_sub2L, .Lfunc_end31-mcl_fp_sub2L
	.cantunwind
	.fnend

	.globl	mcl_fp_subNF2L
	.align	2
	.type	mcl_fp_subNF2L,%function
mcl_fp_subNF2L:                         @ @mcl_fp_subNF2L
	.fnstart
@ BB#0:
	.save	{r4, lr}
	push	{r4, lr}
	ldm	r2, {r12, lr}
	ldr	r2, [r1]
	ldr	r1, [r1, #4]
	subs	r4, r2, r12
	sbc	r1, r1, lr
	ldm	r3, {r12, lr}
	adds	r3, r4, r12
	adc	r2, r1, lr
	cmp	r1, #0
	movge	r3, r4
	movge	r2, r1
	str	r3, [r0]
	str	r2, [r0, #4]
	pop	{r4, lr}
	mov	pc, lr
.Lfunc_end32:
	.size	mcl_fp_subNF2L, .Lfunc_end32-mcl_fp_subNF2L
	.cantunwind
	.fnend

	.globl	mcl_fpDbl_add2L
	.align	2
	.type	mcl_fpDbl_add2L,%function
mcl_fpDbl_add2L:                        @ @mcl_fpDbl_add2L
	.fnstart
@ BB#0:
	.save	{r4, r5, r6, r7, r11, lr}
	push	{r4, r5, r6, r7, r11, lr}
	ldm	r1, {r12, lr}
	ldr	r4, [r1, #8]
	ldr	r1, [r1, #12]
	ldm	r2, {r5, r6, r7}
	ldr	r2, [r2, #12]
	adds	r5, r5, r12
	adcs	r6, r6, lr
	str	r5, [r0]
	adcs	r7, r7, r4
	str	r6, [r0, #4]
	mov	r6, #0
	adcs	r1, r2, r1
	adc	r2, r6, #0
	ldr	r6, [r3]
	ldr	r3, [r3, #4]
	subs	r6, r7, r6
	sbcs	r3, r1, r3
	sbc	r2, r2, #0
	ands	r2, r2, #1
	movne	r6, r7
	movne	r3, r1
	str	r6, [r0, #8]
	str	r3, [r0, #12]
	pop	{r4, r5, r6, r7, r11, lr}
	mov	pc, lr
.Lfunc_end33:
	.size	mcl_fpDbl_add2L, .Lfunc_end33-mcl_fpDbl_add2L
	.cantunwind
	.fnend

	.globl	mcl_fpDbl_sub2L
	.align	2
	.type	mcl_fpDbl_sub2L,%function
mcl_fpDbl_sub2L:                        @ @mcl_fpDbl_sub2L
	.fnstart
@ BB#0:
	.save	{r4, r5, r6, r7, r11, lr}
	push	{r4, r5, r6, r7, r11, lr}
	ldm	r2, {r12, lr}
	ldr	r4, [r2, #8]
	ldr	r2, [r2, #12]
	ldm	r1, {r5, r6, r7}
	ldr	r1, [r1, #12]
	subs	r5, r5, r12
	sbcs	r6, r6, lr
	str	r5, [r0]
	sbcs	r7, r7, r4
	str	r6, [r0, #4]
	mov	r6, #0
	sbcs	r1, r1, r2
	sbc	r2, r6, #0
	ldr	r6, [r3]
	ldr	r3, [r3, #4]
	adds	r6, r7, r6
	adc	r3, r1, r3
	ands	r2, r2, #1
	moveq	r6, r7
	moveq	r3, r1
	str	r6, [r0, #8]
	str	r3, [r0, #12]
	pop	{r4, r5, r6, r7, r11, lr}
	mov	pc, lr
.Lfunc_end34:
	.size	mcl_fpDbl_sub2L, .Lfunc_end34-mcl_fpDbl_sub2L
	.cantunwind
	.fnend

	.globl	mcl_fp_mulUnitPre3L
	.align	2
	.type	mcl_fp_mulUnitPre3L,%function
mcl_fp_mulUnitPre3L:                    @ @mcl_fp_mulUnitPre3L
	.fnstart
@ BB#0:
	.save	{r4, r5, r6, r7, r8, lr}
	push	{r4, r5, r6, r7, r8, lr}
	ldr	r12, [r1]
	ldmib	r1, {r3, r5}
	umull	lr, r4, r12, r2
	umull	r1, r12, r5, r2
	umull	r7, r8, r3, r2
	mov	r5, r1
	mov	r6, r4
	str	lr, [r0]
	umlal	r6, r5, r3, r2
	adds	r2, r4, r7
	adcs	r1, r8, r1
	str	r6, [r0, #4]
	str	r5, [r0, #8]
	adc	r1, r12, #0
	str	r1, [r0, #12]
	pop	{r4, r5, r6, r7, r8, lr}
	mov	pc, lr
.Lfunc_end35:
	.size	mcl_fp_mulUnitPre3L, .Lfunc_end35-mcl_fp_mulUnitPre3L
	.cantunwind
	.fnend

	.globl	mcl_fpDbl_mulPre3L
	.align	2
	.type	mcl_fpDbl_mulPre3L,%function
mcl_fpDbl_mulPre3L:                     @ @mcl_fpDbl_mulPre3L
	.fnstart
@ BB#0:
	.save	{r4, r5, r6, r7, r8, r9, r10, r11, lr}
	push	{r4, r5, r6, r7, r8, r9, r10, r11, lr}
	ldr	r3, [r2]
	ldm	r1, {r12, lr}
	ldr	r1, [r1, #8]
	umull	r4, r5, r12, r3
	str	r4, [r0]
	umull	r4, r6, lr, r3
	adds	r4, r5, r4
	umull	r7, r4, r1, r3
	adcs	r6, r6, r7
	umlal	r5, r7, lr, r3
	ldr	r3, [r2, #4]
	ldr	r2, [r2, #8]
	adc	r8, r4, #0
	umull	r6, r10, r12, r3
	adds	r9, r6, r5
	umull	r6, r5, lr, r3
	adcs	r6, r6, r7
	umull	r7, r4, r1, r3
	str	r9, [r0, #4]
	adcs	r3, r7, r8
	mov	r8, #0
	adc	r7, r8, #0
	adds	r6, r6, r10
	adcs	r11, r3, r5
	umull	r5, r9, r1, r2
	umull	r1, r10, lr, r2
	adc	r4, r7, r4
	umull	r7, r3, r12, r2
	adds	r2, r6, r7
	adcs	r1, r11, r1
	str	r2, [r0, #8]
	adcs	r2, r4, r5
	adc	r7, r8, #0
	adds	r1, r1, r3
	str	r1, [r0, #12]
	adcs	r1, r2, r10
	str	r1, [r0, #16]
	adc	r1, r7, r9
	str	r1, [r0, #20]
	pop	{r4, r5, r6, r7, r8, r9, r10, r11, lr}
	mov	pc, lr
.Lfunc_end36:
	.size	mcl_fpDbl_mulPre3L, .Lfunc_end36-mcl_fpDbl_mulPre3L
	.cantunwind
	.fnend

	.globl	mcl_fpDbl_sqrPre3L
	.align	2
	.type	mcl_fpDbl_sqrPre3L,%function
mcl_fpDbl_sqrPre3L:                     @ @mcl_fpDbl_sqrPre3L
	.fnstart
@ BB#0:
	.save	{r4, r5, r6, r7, r8, r9, r10, lr}
	push	{r4, r5, r6, r7, r8, r9, r10, lr}
	ldm	r1, {r2, r3, r12}
	mov	r10, #0
	umull	r1, lr, r2, r2
	umull	r7, r4, r3, r2
	str	r1, [r0]
	umull	r1, r8, r12, r2
	mov	r5, lr
	mov	r6, r1
	umlal	r5, r6, r3, r2
	adds	r2, lr, r7
	adcs	r2, r4, r1
	adc	r2, r8, #0
	adds	lr, r5, r7
	umull	r5, r9, r3, r3
	adcs	r5, r6, r5
	umull	r6, r7, r12, r3
	str	lr, [r0, #4]
	adcs	r2, r2, r6
	adc	r3, r10, #0
	adds	r4, r5, r4
	adcs	r2, r2, r9
	adc	r3, r3, r7
	adds	r1, r4, r1
	umull	r5, r4, r12, r12
	str	r1, [r0, #8]
	adcs	r1, r2, r6
	adcs	r2, r3, r5
	adc	r3, r10, #0
	adds	r1, r1, r8
	str	r1, [r0, #12]
	adcs	r1, r2, r7
	str	r1, [r0, #16]
	adc	r1, r3, r4
	str	r1, [r0, #20]
	pop	{r4, r5, r6, r7, r8, r9, r10, lr}
	mov	pc, lr
.Lfunc_end37:
	.size	mcl_fpDbl_sqrPre3L, .Lfunc_end37-mcl_fpDbl_sqrPre3L
	.cantunwind
	.fnend

	.globl	mcl_fp_mont3L
	.align	2
	.type	mcl_fp_mont3L,%function
mcl_fp_mont3L:                          @ @mcl_fp_mont3L
	.fnstart
@ BB#0:
	.save	{r4, r5, r6, r7, r8, r9, r10, r11, lr}
	push	{r4, r5, r6, r7, r8, r9, r10, r11, lr}
	.pad	#44
	sub	sp, sp, #44
	str	r0, [sp, #24]           @ 4-byte Spill
	ldm	r2, {r8, lr}
	ldr	r0, [r2, #8]
	str	r0, [sp, #20]           @ 4-byte Spill
	ldr	r0, [r1]
	str	r0, [sp, #36]           @ 4-byte Spill
	ldmib	r1, {r4, r9}
	ldr	r2, [r3, #-4]
	umull	r7, r6, r0, r8
	ldr	r0, [r3]
	ldr	r1, [r3, #8]
	ldr	r10, [r3, #4]
	str	r7, [sp, #12]           @ 4-byte Spill
	mul	r5, r7, r2
	str	r2, [sp, #16]           @ 4-byte Spill
	str	r9, [sp, #32]           @ 4-byte Spill
	str	r0, [sp, #40]           @ 4-byte Spill
	str	r1, [sp, #28]           @ 4-byte Spill
	umull	r12, r2, r5, r1
	umull	r1, r3, r5, r0
	umull	r0, r7, r9, r8
	umull	r11, r9, r4, r8
	str	r7, [sp]                @ 4-byte Spill
	adds	r7, r6, r11
	str	r1, [sp, #8]            @ 4-byte Spill
	mov	r1, r3
	str	r2, [sp, #4]            @ 4-byte Spill
	mov	r2, r12
	adcs	r7, r9, r0
	umlal	r1, r2, r5, r10
	umlal	r6, r0, r4, r8
	mov	r8, #0
	ldr	r7, [sp]                @ 4-byte Reload
	adc	r9, r7, #0
	umull	r7, r11, r5, r10
	ldr	r5, [sp, #8]            @ 4-byte Reload
	adds	r3, r3, r7
	ldr	r7, [sp, #12]           @ 4-byte Reload
	adcs	r3, r11, r12
	ldr	r3, [sp, #4]            @ 4-byte Reload
	adc	r3, r3, #0
	adds	r7, r5, r7
	adcs	r11, r1, r6
	adcs	r12, r2, r0
	ldr	r0, [sp, #32]           @ 4-byte Reload
	adcs	r9, r3, r9
	ldr	r3, [sp, #36]           @ 4-byte Reload
	adc	r8, r8, #0
	umull	r6, r7, lr, r0
	umull	r5, r0, lr, r4
	umull	r1, r2, lr, r3
	adds	r5, r2, r5
	adcs	r0, r0, r6
	umlal	r2, r6, lr, r4
	adc	r0, r7, #0
	adds	r1, r11, r1
	ldr	r11, [sp, #16]          @ 4-byte Reload
	adcs	r2, r12, r2
	ldr	r12, [sp, #28]          @ 4-byte Reload
	str	r2, [sp, #12]           @ 4-byte Spill
	adcs	r2, r9, r6
	str	r2, [sp, #8]            @ 4-byte Spill
	ldr	r2, [sp, #40]           @ 4-byte Reload
	adcs	r0, r8, r0
	str	r0, [sp, #4]            @ 4-byte Spill
	mov	r0, #0
	mul	r6, r1, r11
	adc	r0, r0, #0
	umull	r7, r9, r6, r12
	str	r0, [sp]                @ 4-byte Spill
	mov	r5, r7
	umull	r8, r0, r6, r2
	umull	lr, r2, r6, r10
	mov	r3, r0
	adds	r0, r0, lr
	ldr	lr, [sp, #36]           @ 4-byte Reload
	adcs	r0, r2, r7
	umlal	r3, r5, r6, r10
	adc	r0, r9, #0
	adds	r1, r8, r1
	ldr	r1, [sp, #12]           @ 4-byte Reload
	adcs	r1, r3, r1
	ldr	r3, [sp, #20]           @ 4-byte Reload
	str	r1, [sp, #12]           @ 4-byte Spill
	ldr	r1, [sp, #8]            @ 4-byte Reload
	adcs	r8, r5, r1
	ldr	r1, [sp, #4]            @ 4-byte Reload
	adcs	r9, r0, r1
	ldr	r0, [sp]                @ 4-byte Reload
	umull	r1, r2, r3, lr
	adc	r0, r0, #0
	str	r0, [sp, #8]            @ 4-byte Spill
	ldr	r0, [sp, #32]           @ 4-byte Reload
	umull	r6, r7, r3, r0
	umull	r5, r0, r3, r4
	adds	r5, r2, r5
	adcs	r0, r0, r6
	umlal	r2, r6, r3, r4
	ldr	r3, [sp, #12]           @ 4-byte Reload
	adc	r0, r7, #0
	adds	r1, r3, r1
	adcs	r2, r8, r2
	str	r2, [sp, #36]           @ 4-byte Spill
	ldr	r2, [sp, #8]            @ 4-byte Reload
	adcs	r9, r9, r6
	mul	r6, r1, r11
	umull	r7, r4, r6, r12
	ldr	r12, [sp, #40]          @ 4-byte Reload
	mov	r5, r7
	adcs	r0, r2, r0
	str	r0, [sp, #32]           @ 4-byte Spill
	mov	r0, #0
	umull	r11, r3, r6, r12
	adc	r8, r0, #0
	umull	r0, lr, r6, r10
	mov	r2, r3
	adds	r0, r3, r0
	ldr	r3, [sp, #32]           @ 4-byte Reload
	umlal	r2, r5, r6, r10
	adcs	r0, lr, r7
	adc	r0, r4, #0
	adds	r1, r11, r1
	ldr	r1, [sp, #36]           @ 4-byte Reload
	adcs	r1, r2, r1
	adcs	r2, r5, r9
	ldr	r5, [sp, #28]           @ 4-byte Reload
	adcs	r0, r0, r3
	adc	r3, r8, #0
	subs	r7, r1, r12
	sbcs	r6, r2, r10
	sbcs	r5, r0, r5
	sbc	r3, r3, #0
	ands	r3, r3, #1
	movne	r5, r0
	ldr	r0, [sp, #24]           @ 4-byte Reload
	movne	r7, r1
	movne	r6, r2
	str	r7, [r0]
	str	r6, [r0, #4]
	str	r5, [r0, #8]
	add	sp, sp, #44
	pop	{r4, r5, r6, r7, r8, r9, r10, r11, lr}
	mov	pc, lr
.Lfunc_end38:
	.size	mcl_fp_mont3L, .Lfunc_end38-mcl_fp_mont3L
	.cantunwind
	.fnend

	.globl	mcl_fp_montNF3L
	.align	2
	.type	mcl_fp_montNF3L,%function
mcl_fp_montNF3L:                        @ @mcl_fp_montNF3L
	.fnstart
@ BB#0:
	.save	{r4, r5, r6, r7, r8, r9, r10, r11, lr}
	push	{r4, r5, r6, r7, r8, r9, r10, r11, lr}
	.pad	#68
	sub	sp, sp, #68
	str	r0, [sp, #64]           @ 4-byte Spill
	ldr	r8, [r1]
	ldmib	r1, {r6, r9}
	ldm	r2, {r4, r7}
	ldr	r0, [r2, #8]
	mov	r10, r3
	umull	r3, r1, r0, r9
	str	r1, [sp, #52]           @ 4-byte Spill
	umull	r1, r2, r0, r8
	str	r3, [sp, #44]           @ 4-byte Spill
	str	r1, [sp, #48]           @ 4-byte Spill
	str	r2, [sp, #40]           @ 4-byte Spill
	mov	r1, r2
	mov	r2, r3
	umull	r3, r5, r0, r6
	umlal	r1, r2, r0, r6
	str	r3, [sp, #32]           @ 4-byte Spill
	umull	r3, r0, r7, r6
	str	r5, [sp, #36]           @ 4-byte Spill
	str	r1, [sp, #56]           @ 4-byte Spill
	str	r2, [sp, #60]           @ 4-byte Spill
	umull	r2, r1, r7, r9
	str	r0, [sp, #8]            @ 4-byte Spill
	str	r3, [sp, #4]            @ 4-byte Spill
	str	r1, [sp, #28]           @ 4-byte Spill
	umull	r1, r11, r7, r8
	str	r2, [sp, #16]           @ 4-byte Spill
	str	r1, [sp, #24]           @ 4-byte Spill
	mov	r1, r2
	str	r11, [sp, #12]          @ 4-byte Spill
	umlal	r11, r1, r7, r6
	umull	r0, r7, r6, r4
	str	r1, [sp, #20]           @ 4-byte Spill
	umull	lr, r1, r9, r4
	umull	r9, r2, r8, r4
	ldr	r8, [r10, #-4]
	adds	r0, r2, r0
	str	r1, [sp]                @ 4-byte Spill
	mov	r1, r2
	mov	r12, lr
	adcs	r0, r7, lr
	umlal	r1, r12, r6, r4
	ldr	r0, [sp]                @ 4-byte Reload
	ldm	r10, {r6, r7}
	mul	r2, r9, r8
	adc	r3, r0, #0
	ldr	r0, [r10, #8]
	umull	r4, lr, r2, r6
	adds	r4, r4, r9
	umull	r4, r9, r2, r7
	adcs	r1, r4, r1
	umull	r4, r5, r2, r0
	adcs	r2, r4, r12
	ldr	r4, [sp, #4]            @ 4-byte Reload
	adc	r3, r3, #0
	adds	r1, r1, lr
	adcs	r2, r2, r9
	adc	r3, r3, r5
	ldr	r5, [sp, #12]           @ 4-byte Reload
	adds	r5, r5, r4
	ldr	r4, [sp, #8]            @ 4-byte Reload
	ldr	r5, [sp, #16]           @ 4-byte Reload
	adcs	r5, r4, r5
	ldr	r4, [sp, #24]           @ 4-byte Reload
	ldr	r5, [sp, #28]           @ 4-byte Reload
	adc	r5, r5, #0
	adds	r1, r4, r1
	ldr	r4, [sp, #20]           @ 4-byte Reload
	adcs	r2, r11, r2
	adcs	r12, r4, r3
	mul	r4, r1, r8
	umull	r3, r9, r4, r6
	adc	lr, r5, #0
	adds	r1, r3, r1
	umull	r1, r3, r4, r7
	adcs	r1, r1, r2
	umull	r2, r5, r4, r0
	adcs	r2, r2, r12
	adc	r4, lr, #0
	adds	r1, r1, r9
	adcs	r12, r2, r3
	ldr	r2, [sp, #40]           @ 4-byte Reload
	ldr	r3, [sp, #32]           @ 4-byte Reload
	adc	r9, r4, r5
	adds	r5, r2, r3
	ldr	r2, [sp, #44]           @ 4-byte Reload
	ldr	r3, [sp, #36]           @ 4-byte Reload
	adcs	r5, r3, r2
	ldr	r2, [sp, #52]           @ 4-byte Reload
	ldr	r5, [sp, #60]           @ 4-byte Reload
	adc	lr, r2, #0
	ldr	r2, [sp, #48]           @ 4-byte Reload
	adds	r1, r2, r1
	mul	r4, r1, r8
	umull	r10, r2, r4, r0
	umull	r3, r8, r4, r7
	str	r2, [sp, #52]           @ 4-byte Spill
	umull	r2, r11, r4, r6
	ldr	r4, [sp, #56]           @ 4-byte Reload
	adcs	r4, r4, r12
	adcs	r12, r5, r9
	adc	r5, lr, #0
	adds	r1, r2, r1
	adcs	r1, r3, r4
	adcs	r2, r10, r12
	adc	r3, r5, #0
	ldr	r5, [sp, #52]           @ 4-byte Reload
	adds	r1, r1, r11
	adcs	r2, r2, r8
	adc	r3, r3, r5
	subs	r6, r1, r6
	sbcs	r7, r2, r7
	sbc	r0, r3, r0
	asr	r5, r0, #31
	cmp	r5, #0
	movlt	r6, r1
	ldr	r1, [sp, #64]           @ 4-byte Reload
	movlt	r7, r2
	movlt	r0, r3
	stm	r1, {r6, r7}
	str	r0, [r1, #8]
	add	sp, sp, #68
	pop	{r4, r5, r6, r7, r8, r9, r10, r11, lr}
	mov	pc, lr
.Lfunc_end39:
	.size	mcl_fp_montNF3L, .Lfunc_end39-mcl_fp_montNF3L
	.cantunwind
	.fnend

	.globl	mcl_fp_montRed3L
	.align	2
	.type	mcl_fp_montRed3L,%function
mcl_fp_montRed3L:                       @ @mcl_fp_montRed3L
	.fnstart
@ BB#0:
	.save	{r4, r5, r6, r7, r8, r9, r10, r11, lr}
	push	{r4, r5, r6, r7, r8, r9, r10, r11, lr}
	.pad	#28
	sub	sp, sp, #28
	ldr	r5, [r2]
	ldr	lr, [r2, #-4]
	ldr	r3, [r2, #4]
	ldr	r2, [r2, #8]
	str	r0, [sp, #24]           @ 4-byte Spill
	str	r5, [sp, #20]           @ 4-byte Spill
	str	r2, [sp]                @ 4-byte Spill
	ldm	r1, {r4, r7}
	str	r7, [sp, #8]            @ 4-byte Spill
	ldr	r7, [r1, #8]
	mul	r6, r4, lr
	umull	r10, r8, r6, r3
	str	r7, [sp, #16]           @ 4-byte Spill
	ldr	r7, [r1, #12]
	str	r7, [sp, #12]           @ 4-byte Spill
	umull	r7, r9, r6, r2
	umull	r11, r2, r6, r5
	mov	r0, r2
	adds	r2, r2, r10
	mov	r12, r7
	adcs	r2, r8, r7
	umlal	r0, r12, r6, r3
	ldr	r8, [r1, #20]
	ldr	r1, [r1, #16]
	ldr	r2, [sp, #8]            @ 4-byte Reload
	adc	r10, r9, #0
	adds	r7, r4, r11
	mov	r11, lr
	adcs	r9, r2, r0
	ldr	r2, [sp]                @ 4-byte Reload
	mul	r7, r9, lr
	umull	lr, r0, r7, r2
	str	r0, [sp, #8]            @ 4-byte Spill
	umull	r4, r0, r7, r5
	ldr	r5, [sp, #16]           @ 4-byte Reload
	mov	r6, lr
	str	r4, [sp, #4]            @ 4-byte Spill
	mov	r4, r0
	umlal	r4, r6, r7, r3
	adcs	r12, r5, r12
	ldr	r5, [sp, #12]           @ 4-byte Reload
	adcs	r10, r5, r10
	adcs	r1, r1, #0
	str	r1, [sp, #16]           @ 4-byte Spill
	adcs	r1, r8, #0
	str	r1, [sp, #12]           @ 4-byte Spill
	mov	r1, #0
	adc	r8, r1, #0
	umull	r1, r5, r7, r3
	ldr	r7, [sp, #16]           @ 4-byte Reload
	adds	r1, r0, r1
	adcs	r0, r5, lr
	ldr	r1, [sp, #4]            @ 4-byte Reload
	ldr	r0, [sp, #8]            @ 4-byte Reload
	adc	r0, r0, #0
	adds	r1, r1, r9
	adcs	r1, r4, r12
	adcs	lr, r6, r10
	ldr	r6, [sp, #20]           @ 4-byte Reload
	mul	r5, r1, r11
	mov	r11, r2
	adcs	r0, r0, r7
	umull	r4, r12, r5, r2
	umull	r2, r7, r5, r3
	str	r0, [sp, #16]           @ 4-byte Spill
	ldr	r0, [sp, #12]           @ 4-byte Reload
	adcs	r10, r0, #0
	umull	r9, r0, r5, r6
	adc	r8, r8, #0
	adds	r2, r0, r2
	mov	r2, r4
	adcs	r4, r7, r4
	adc	r7, r12, #0
	adds	r1, r9, r1
	umlal	r0, r2, r5, r3
	ldr	r1, [sp, #16]           @ 4-byte Reload
	adcs	r0, r0, lr
	adcs	r1, r2, r1
	adcs	r2, r7, r10
	adc	r7, r8, #0
	subs	r6, r0, r6
	sbcs	r3, r1, r3
	sbcs	r5, r2, r11
	sbc	r7, r7, #0
	ands	r7, r7, #1
	movne	r6, r0
	ldr	r0, [sp, #24]           @ 4-byte Reload
	movne	r3, r1
	movne	r5, r2
	str	r6, [r0]
	stmib	r0, {r3, r5}
	add	sp, sp, #28
	pop	{r4, r5, r6, r7, r8, r9, r10, r11, lr}
	mov	pc, lr
.Lfunc_end40:
	.size	mcl_fp_montRed3L, .Lfunc_end40-mcl_fp_montRed3L
	.cantunwind
	.fnend

	.globl	mcl_fp_addPre3L
	.align	2
	.type	mcl_fp_addPre3L,%function
mcl_fp_addPre3L:                        @ @mcl_fp_addPre3L
	.fnstart
@ BB#0:
	.save	{r4, lr}
	push	{r4, lr}
	ldm	r1, {r3, r12, lr}
	ldm	r2, {r1, r4}
	ldr	r2, [r2, #8]
	adds	r1, r1, r3
	adcs	r3, r4, r12
	adcs	r2, r2, lr
	stm	r0, {r1, r3}
	str	r2, [r0, #8]
	mov	r0, #0
	adc	r0, r0, #0
	pop	{r4, lr}
	mov	pc, lr
.Lfunc_end41:
	.size	mcl_fp_addPre3L, .Lfunc_end41-mcl_fp_addPre3L
	.cantunwind
	.fnend

	.globl	mcl_fp_subPre3L
	.align	2
	.type	mcl_fp_subPre3L,%function
mcl_fp_subPre3L:                        @ @mcl_fp_subPre3L
	.fnstart
@ BB#0:
	.save	{r4, lr}
	push	{r4, lr}
	ldm	r2, {r3, r12, lr}
	ldm	r1, {r2, r4}
	ldr	r1, [r1, #8]
	subs	r2, r2, r3
	sbcs	r3, r4, r12
	sbcs	r1, r1, lr
	stm	r0, {r2, r3}
	str	r1, [r0, #8]
	mov	r0, #0
	sbc	r0, r0, #0
	and	r0, r0, #1
	pop	{r4, lr}
	mov	pc, lr
.Lfunc_end42:
	.size	mcl_fp_subPre3L, .Lfunc_end42-mcl_fp_subPre3L
	.cantunwind
	.fnend

	.globl	mcl_fp_shr1_3L
	.align	2
	.type	mcl_fp_shr1_3L,%function
mcl_fp_shr1_3L:                         @ @mcl_fp_shr1_3L
	.fnstart
@ BB#0:
	ldr	r3, [r1, #4]
	ldr	r12, [r1]
	ldr	r1, [r1, #8]
	lsrs	r2, r3, #1
	lsr	r3, r3, #1
	orr	r3, r3, r1, lsl #31
	rrx	r2, r12
	lsr	r1, r1, #1
	stm	r0, {r2, r3}
	str	r1, [r0, #8]
	mov	pc, lr
.Lfunc_end43:
	.size	mcl_fp_shr1_3L, .Lfunc_end43-mcl_fp_shr1_3L
	.cantunwind
	.fnend

	.globl	mcl_fp_add3L
	.align	2
	.type	mcl_fp_add3L,%function
mcl_fp_add3L:                           @ @mcl_fp_add3L
	.fnstart
@ BB#0:
	.save	{r4, r5, r11, lr}
	push	{r4, r5, r11, lr}
	ldm	r1, {r12, lr}
	ldr	r1, [r1, #8]
	ldm	r2, {r4, r5}
	ldr	r2, [r2, #8]
	adds	r4, r4, r12
	adcs	r5, r5, lr
	adcs	r1, r2, r1
	stm	r0, {r4, r5}
	mov	r2, #0
	str	r1, [r0, #8]
	adc	r12, r2, #0
	ldm	r3, {r2, lr}
	ldr	r3, [r3, #8]
	subs	r4, r4, r2
	sbcs	r5, r5, lr
	sbcs	r3, r1, r3
	sbc	r1, r12, #0
	tst	r1, #1
	stmeq	r0, {r4, r5}
	streq	r3, [r0, #8]
	pop	{r4, r5, r11, lr}
	mov	pc, lr
.Lfunc_end44:
	.size	mcl_fp_add3L, .Lfunc_end44-mcl_fp_add3L
	.cantunwind
	.fnend

	.globl	mcl_fp_addNF3L
	.align	2
	.type	mcl_fp_addNF3L,%function
mcl_fp_addNF3L:                         @ @mcl_fp_addNF3L
	.fnstart
@ BB#0:
	.save	{r4, r5, r6, r7, r11, lr}
	push	{r4, r5, r6, r7, r11, lr}
	ldm	r1, {r12, lr}
	ldr	r1, [r1, #8]
	ldm	r2, {r4, r5}
	ldr	r2, [r2, #8]
	adds	r4, r4, r12
	adcs	r5, r5, lr
	adc	r7, r2, r1
	ldm	r3, {r2, r12, lr}
	subs	r2, r4, r2
	sbcs	r3, r5, r12
	sbc	r1, r7, lr
	asr	r6, r1, #31
	cmp	r6, #0
	movlt	r2, r4
	movlt	r3, r5
	movlt	r1, r7
	stm	r0, {r2, r3}
	str	r1, [r0, #8]
	pop	{r4, r5, r6, r7, r11, lr}
	mov	pc, lr
.Lfunc_end45:
	.size	mcl_fp_addNF3L, .Lfunc_end45-mcl_fp_addNF3L
	.cantunwind
	.fnend

	.globl	mcl_fp_sub3L
	.align	2
	.type	mcl_fp_sub3L,%function
mcl_fp_sub3L:                           @ @mcl_fp_sub3L
	.fnstart
@ BB#0:
	.save	{r4, r5, r6, lr}
	push	{r4, r5, r6, lr}
	ldm	r2, {r12, lr}
	ldr	r4, [r2, #8]
	ldm	r1, {r2, r5, r6}
	subs	r1, r2, r12
	sbcs	r2, r5, lr
	sbcs	r12, r6, r4
	mov	r6, #0
	sbc	r6, r6, #0
	stm	r0, {r1, r2, r12}
	tst	r6, #1
	popeq	{r4, r5, r6, lr}
	moveq	pc, lr
	ldr	r6, [r3]
	ldr	r5, [r3, #4]
	ldr	r3, [r3, #8]
	adds	r1, r6, r1
	adcs	r2, r5, r2
	adc	r3, r3, r12
	stm	r0, {r1, r2, r3}
	pop	{r4, r5, r6, lr}
	mov	pc, lr
.Lfunc_end46:
	.size	mcl_fp_sub3L, .Lfunc_end46-mcl_fp_sub3L
	.cantunwind
	.fnend

	.globl	mcl_fp_subNF3L
	.align	2
	.type	mcl_fp_subNF3L,%function
mcl_fp_subNF3L:                         @ @mcl_fp_subNF3L
	.fnstart
@ BB#0:
	.save	{r4, r5, r6, r7, r11, lr}
	push	{r4, r5, r6, r7, r11, lr}
	ldm	r2, {r12, lr}
	ldr	r2, [r2, #8]
	ldm	r1, {r4, r5}
	ldr	r1, [r1, #8]
	subs	r4, r4, r12
	sbcs	r7, r5, lr
	sbc	r1, r1, r2
	ldm	r3, {r2, r12, lr}
	asr	r6, r1, #31
	adds	r2, r4, r2
	adcs	r3, r7, r12
	adc	r5, r1, lr
	cmp	r6, #0
	movge	r2, r4
	movge	r3, r7
	movge	r5, r1
	stm	r0, {r2, r3, r5}
	pop	{r4, r5, r6, r7, r11, lr}
	mov	pc, lr
.Lfunc_end47:
	.size	mcl_fp_subNF3L, .Lfunc_end47-mcl_fp_subNF3L
	.cantunwind
	.fnend

	.globl	mcl_fpDbl_add3L
	.align	2
	.type	mcl_fpDbl_add3L,%function
mcl_fpDbl_add3L:                        @ @mcl_fpDbl_add3L
	.fnstart
@ BB#0:
	.save	{r4, r5, r6, r7, r8, r9, r10, r11, lr}
	push	{r4, r5, r6, r7, r8, r9, r10, r11, lr}
	ldm	r1, {r12, lr}
	ldr	r7, [r2]
	ldr	r11, [r1, #8]
	ldr	r9, [r1, #12]
	ldr	r10, [r1, #16]
	ldr	r8, [r1, #20]
	ldmib	r2, {r1, r5, r6}
	ldr	r4, [r2, #16]
	ldr	r2, [r2, #20]
	adds	r7, r7, r12
	adcs	r1, r1, lr
	str	r7, [r0]
	str	r1, [r0, #4]
	adcs	r1, r5, r11
	ldr	r5, [r3]
	adcs	r7, r6, r9
	str	r1, [r0, #8]
	mov	r1, #0
	adcs	r6, r4, r10
	ldr	r4, [r3, #4]
	ldr	r3, [r3, #8]
	adcs	r2, r2, r8
	adc	r1, r1, #0
	subs	r5, r7, r5
	sbcs	r4, r6, r4
	sbcs	r3, r2, r3
	sbc	r1, r1, #0
	ands	r1, r1, #1
	movne	r5, r7
	movne	r4, r6
	movne	r3, r2
	str	r5, [r0, #12]
	str	r4, [r0, #16]
	str	r3, [r0, #20]
	pop	{r4, r5, r6, r7, r8, r9, r10, r11, lr}
	mov	pc, lr
.Lfunc_end48:
	.size	mcl_fpDbl_add3L, .Lfunc_end48-mcl_fpDbl_add3L
	.cantunwind
	.fnend

	.globl	mcl_fpDbl_sub3L
	.align	2
	.type	mcl_fpDbl_sub3L,%function
mcl_fpDbl_sub3L:                        @ @mcl_fpDbl_sub3L
	.fnstart
@ BB#0:
	.save	{r4, r5, r6, r7, r8, r9, r10, r11, lr}
	push	{r4, r5, r6, r7, r8, r9, r10, r11, lr}
	ldm	r2, {r12, lr}
	ldr	r7, [r1]
	ldr	r11, [r2, #8]
	ldr	r9, [r2, #12]
	ldr	r10, [r2, #16]
	ldr	r8, [r2, #20]
	ldmib	r1, {r2, r5, r6}
	ldr	r4, [r1, #16]
	ldr	r1, [r1, #20]
	subs	r7, r7, r12
	sbcs	r2, r2, lr
	str	r7, [r0]
	str	r2, [r0, #4]
	sbcs	r2, r5, r11
	ldr	r5, [r3]
	sbcs	r7, r6, r9
	str	r2, [r0, #8]
	mov	r2, #0
	sbcs	r6, r4, r10
	ldr	r4, [r3, #4]
	ldr	r3, [r3, #8]
	sbcs	r1, r1, r8
	sbc	r2, r2, #0
	adds	r5, r7, r5
	adcs	r4, r6, r4
	adc	r3, r1, r3
	ands	r2, r2, #1
	moveq	r5, r7
	moveq	r4, r6
	moveq	r3, r1
	str	r5, [r0, #12]
	str	r4, [r0, #16]
	str	r3, [r0, #20]
	pop	{r4, r5, r6, r7, r8, r9, r10, r11, lr}
	mov	pc, lr
.Lfunc_end49:
	.size	mcl_fpDbl_sub3L, .Lfunc_end49-mcl_fpDbl_sub3L
	.cantunwind
	.fnend

	.globl	mcl_fp_mulUnitPre4L
	.align	2
	.type	mcl_fp_mulUnitPre4L,%function
mcl_fp_mulUnitPre4L:                    @ @mcl_fp_mulUnitPre4L
	.fnstart
@ BB#0:
	.save	{r4, r5, r6, r7, r11, lr}
	push	{r4, r5, r6, r7, r11, lr}
	ldr	r12, [r1]
	ldmib	r1, {r3, lr}
	ldr	r1, [r1, #12]
	umull	r4, r6, r12, r2
	umull	r7, r12, lr, r2
	str	r4, [r0]
	mov	r5, r6
	mov	r4, r7
	umlal	r5, r4, r3, r2
	str	r5, [r0, #4]
	str	r4, [r0, #8]
	umull	r5, lr, r1, r2
	umull	r1, r4, r3, r2
	adds	r1, r6, r1
	adcs	r1, r4, r7
	adcs	r1, r12, r5
	str	r1, [r0, #12]
	adc	r1, lr, #0
	str	r1, [r0, #16]
	pop	{r4, r5, r6, r7, r11, lr}
	mov	pc, lr
.Lfunc_end50:
	.size	mcl_fp_mulUnitPre4L, .Lfunc_end50-mcl_fp_mulUnitPre4L
	.cantunwind
	.fnend

	.globl	mcl_fpDbl_mulPre4L
	.align	2
	.type	mcl_fpDbl_mulPre4L,%function
mcl_fpDbl_mulPre4L:                     @ @mcl_fpDbl_mulPre4L
	.fnstart
@ BB#0:
	.save	{r4, r5, r6, r7, r8, r9, r10, r11, lr}
	push	{r4, r5, r6, r7, r8, r9, r10, r11, lr}
	.pad	#40
	sub	sp, sp, #40
	mov	lr, r2
	ldr	r11, [r1]
	ldr	r4, [lr]
	ldmib	r1, {r8, r12}
	ldr	r3, [r1, #12]
	umull	r2, r7, r11, r4
	umull	r6, r9, r8, r4
	str	r12, [sp]               @ 4-byte Spill
	adds	r6, r7, r6
	str	r2, [sp, #36]           @ 4-byte Spill
	mov	r2, r3
	umull	r6, r10, r12, r4
	adcs	r5, r9, r6
	umlal	r7, r6, r8, r4
	umull	r5, r9, r3, r4
	ldr	r3, [sp, #36]           @ 4-byte Reload
	ldr	r4, [lr, #4]
	adcs	r10, r10, r5
	str	r3, [r0]
	adc	r3, r9, #0
	str	r3, [sp, #24]           @ 4-byte Spill
	umull	r5, r3, r11, r4
	adds	r7, r5, r7
	str	r3, [sp, #32]           @ 4-byte Spill
	str	r7, [sp, #36]           @ 4-byte Spill
	umull	r7, r3, r8, r4
	str	r3, [sp, #28]           @ 4-byte Spill
	adcs	r3, r7, r6
	umull	r7, r9, r12, r4
	mov	r12, r2
	ldr	r6, [sp, #32]           @ 4-byte Reload
	adcs	r7, r7, r10
	umull	r5, r10, r2, r4
	ldr	r2, [sp, #24]           @ 4-byte Reload
	mov	r4, #0
	adcs	r5, r5, r2
	ldr	r2, [sp, #28]           @ 4-byte Reload
	adc	r4, r4, #0
	adds	r6, r3, r6
	adcs	r7, r7, r2
	ldr	r2, [lr, #12]
	str	r7, [sp, #24]           @ 4-byte Spill
	adcs	r7, r5, r9
	str	r7, [sp, #20]           @ 4-byte Spill
	adc	r7, r4, r10
	ldr	r4, [lr, #8]
	str	r7, [sp, #16]           @ 4-byte Spill
	ldr	r7, [sp, #36]           @ 4-byte Reload
	str	r7, [r0, #4]
	umull	r5, r7, r11, r4
	adds	r5, r5, r6
	str	r7, [sp, #12]           @ 4-byte Spill
	str	r5, [r0, #8]
	ldm	r1, {r11, lr}
	ldr	r5, [r1, #8]
	ldr	r1, [r1, #12]
	ldr	r3, [sp, #24]           @ 4-byte Reload
	umull	r6, r7, r1, r2
	umull	r10, r1, r5, r2
	str	r1, [sp, #32]           @ 4-byte Spill
	umull	r5, r1, lr, r2
	str	r6, [sp, #8]            @ 4-byte Spill
	str	r7, [sp, #36]           @ 4-byte Spill
	ldr	r7, [sp, #16]           @ 4-byte Reload
	str	r1, [sp, #28]           @ 4-byte Spill
	umull	r6, r1, r11, r2
	umull	r2, r11, r12, r4
	str	r1, [sp, #4]            @ 4-byte Spill
	ldr	r1, [sp]                @ 4-byte Reload
	umull	lr, r12, r1, r4
	umull	r9, r1, r8, r4
	ldr	r4, [sp, #20]           @ 4-byte Reload
	mov	r8, #0
	adcs	r3, r9, r3
	adcs	r4, lr, r4
	adcs	r2, r2, r7
	ldr	r7, [sp, #12]           @ 4-byte Reload
	adc	lr, r8, #0
	adds	r3, r3, r7
	adcs	r1, r4, r1
	adcs	r2, r2, r12
	adc	r4, lr, r11
	adds	r3, r6, r3
	ldr	r6, [sp, #4]            @ 4-byte Reload
	str	r3, [r0, #12]
	ldr	r3, [sp, #8]            @ 4-byte Reload
	adcs	r1, r5, r1
	adcs	r2, r10, r2
	adcs	r3, r3, r4
	adc	r7, r8, #0
	adds	r1, r1, r6
	str	r1, [r0, #16]
	ldr	r1, [sp, #28]           @ 4-byte Reload
	adcs	r1, r2, r1
	str	r1, [r0, #20]
	ldr	r1, [sp, #32]           @ 4-byte Reload
	adcs	r1, r3, r1
	str	r1, [r0, #24]
	ldr	r1, [sp, #36]           @ 4-byte Reload
	adc	r1, r7, r1
	str	r1, [r0, #28]
	add	sp, sp, #40
	pop	{r4, r5, r6, r7, r8, r9, r10, r11, lr}
	mov	pc, lr
.Lfunc_end51:
	.size	mcl_fpDbl_mulPre4L, .Lfunc_end51-mcl_fpDbl_mulPre4L
	.cantunwind
	.fnend

	.globl	mcl_fpDbl_sqrPre4L
	.align	2
	.type	mcl_fpDbl_sqrPre4L,%function
mcl_fpDbl_sqrPre4L:                     @ @mcl_fpDbl_sqrPre4L
	.fnstart
@ BB#0:
	.save	{r4, r5, r6, r7, r8, r9, r10, r11, lr}
	push	{r4, r5, r6, r7, r8, r9, r10, r11, lr}
	.pad	#16
	sub	sp, sp, #16
	ldm	r1, {r2, r3, r12}
	ldr	r8, [r1, #12]
	umull	r4, r6, r2, r2
	umull	r11, lr, r12, r2
	str	r4, [r0]
	umull	r10, r4, r8, r2
	mov	r7, r11
	mov	r5, r6
	str	lr, [sp, #12]           @ 4-byte Spill
	str	r4, [sp, #8]            @ 4-byte Spill
	umull	r4, r9, r3, r2
	umlal	r5, r7, r3, r2
	adds	r2, r6, r4
	adcs	r2, r9, r11
	ldr	r2, [sp, #8]            @ 4-byte Reload
	adcs	r10, lr, r10
	adc	r2, r2, #0
	adds	r4, r4, r5
	str	r2, [sp]                @ 4-byte Spill
	umull	r6, r2, r3, r3
	str	r4, [sp, #8]            @ 4-byte Spill
	str	r2, [sp, #4]            @ 4-byte Spill
	ldr	r2, [sp]                @ 4-byte Reload
	adcs	r5, r6, r7
	umull	r6, r7, r12, r3
	adcs	lr, r6, r10
	umull	r4, r10, r8, r3
	adcs	r3, r4, r2
	ldr	r2, [sp, #4]            @ 4-byte Reload
	mov	r4, #0
	adc	r4, r4, #0
	adds	r5, r5, r9
	adcs	r9, lr, r2
	adcs	r2, r3, r7
	ldr	r3, [sp, #8]            @ 4-byte Reload
	adc	r4, r4, r10
	adds	r5, r11, r5
	str	r2, [sp, #4]            @ 4-byte Spill
	umull	r2, r10, r8, r12
	umull	lr, r8, r12, r12
	adcs	r6, r6, r9
	stmib	r0, {r3, r5}
	mov	r5, #0
	ldr	r3, [sp, #4]            @ 4-byte Reload
	adcs	r3, lr, r3
	adcs	r2, r2, r4
	ldr	r4, [sp, #12]           @ 4-byte Reload
	adc	r5, r5, #0
	adds	r6, r6, r4
	adcs	r11, r3, r7
	adcs	lr, r2, r8
	adc	r8, r5, r10
	ldr	r5, [r1]
	ldmib	r1, {r4, r7}
	ldr	r1, [r1, #12]
	umull	r12, r2, r1, r1
	umull	r3, r9, r7, r1
	umull	r7, r10, r4, r1
	str	r2, [sp, #12]           @ 4-byte Spill
	umull	r4, r2, r5, r1
	adds	r1, r4, r6
	adcs	r4, r7, r11
	str	r1, [r0, #12]
	mov	r7, #0
	adcs	r3, r3, lr
	adcs	r1, r12, r8
	adc	r7, r7, #0
	adds	r2, r4, r2
	str	r2, [r0, #16]
	adcs	r2, r3, r10
	adcs	r1, r1, r9
	str	r2, [r0, #20]
	str	r1, [r0, #24]
	ldr	r1, [sp, #12]           @ 4-byte Reload
	adc	r1, r7, r1
	str	r1, [r0, #28]
	add	sp, sp, #16
	pop	{r4, r5, r6, r7, r8, r9, r10, r11, lr}
	mov	pc, lr
.Lfunc_end52:
	.size	mcl_fpDbl_sqrPre4L, .Lfunc_end52-mcl_fpDbl_sqrPre4L
	.cantunwind
	.fnend

	.globl	mcl_fp_mont4L
	.align	2
	.type	mcl_fp_mont4L,%function
mcl_fp_mont4L:                          @ @mcl_fp_mont4L
	.fnstart
@ BB#0:
	.save	{r4, r5, r6, r7, r8, r9, r10, r11, lr}
	push	{r4, r5, r6, r7, r8, r9, r10, r11, lr}
	.pad	#76
	sub	sp, sp, #76
	str	r0, [sp, #36]           @ 4-byte Spill
	ldr	r0, [r2, #8]
	ldr	r9, [r2]
	ldr	r8, [r2, #4]
	ldr	r6, [r3, #-4]
	ldr	r11, [r1, #8]
	ldr	r10, [r1, #12]
	ldr	r7, [r3, #8]
	ldr	r5, [r3, #4]
	str	r0, [sp, #28]           @ 4-byte Spill
	ldr	r0, [r2, #12]
	ldr	r2, [r1, #4]
	str	r6, [sp, #44]           @ 4-byte Spill
	str	r7, [sp, #40]           @ 4-byte Spill
	str	r5, [sp, #52]           @ 4-byte Spill
	str	r11, [sp, #60]          @ 4-byte Spill
	str	r10, [sp, #56]          @ 4-byte Spill
	str	r0, [sp, #32]           @ 4-byte Spill
	ldr	r0, [r1]
	ldr	r1, [r3]
	str	r2, [sp, #72]           @ 4-byte Spill
	ldr	r3, [r3, #12]
	umull	r4, r2, r0, r9
	str	r0, [sp, #64]           @ 4-byte Spill
	str	r1, [sp, #48]           @ 4-byte Spill
	mul	r0, r4, r6
	str	r4, [sp, #24]           @ 4-byte Spill
	mov	r4, r5
	umull	lr, r6, r0, r7
	umull	r7, r12, r0, r1
	str	r7, [sp, #20]           @ 4-byte Spill
	ldr	r7, [sp, #72]           @ 4-byte Reload
	str	r6, [sp, #16]           @ 4-byte Spill
	mov	r6, r12
	str	lr, [sp, #8]            @ 4-byte Spill
	umlal	r6, lr, r0, r5
	umull	r5, r1, r10, r9
	str	r1, [sp, #68]           @ 4-byte Spill
	str	r5, [sp, #12]           @ 4-byte Spill
	umull	r1, r10, r11, r9
	umull	r11, r5, r7, r9
	adds	r7, r2, r11
	adcs	r5, r5, r1
	ldr	r5, [sp, #12]           @ 4-byte Reload
	adcs	r11, r10, r5
	ldr	r5, [sp, #68]           @ 4-byte Reload
	str	r3, [sp, #68]           @ 4-byte Spill
	adc	r5, r5, #0
	str	r5, [sp, #12]           @ 4-byte Spill
	umull	r5, r7, r0, r3
	umull	r10, r3, r0, r4
	ldr	r4, [sp, #24]           @ 4-byte Reload
	adds	r0, r12, r10
	mov	r12, #0
	ldr	r0, [sp, #8]            @ 4-byte Reload
	adcs	r0, r3, r0
	ldr	r0, [sp, #16]           @ 4-byte Reload
	adcs	r0, r0, r5
	ldr	r5, [sp, #20]           @ 4-byte Reload
	adc	r3, r7, #0
	ldr	r7, [sp, #72]           @ 4-byte Reload
	adds	r4, r5, r4
	umlal	r2, r1, r7, r9
	adcs	r2, r6, r2
	adcs	r1, lr, r1
	str	r2, [sp, #24]           @ 4-byte Spill
	adcs	r9, r0, r11
	ldr	r0, [sp, #12]           @ 4-byte Reload
	str	r1, [sp, #20]           @ 4-byte Spill
	adcs	r6, r3, r0
	ldr	r0, [sp, #56]           @ 4-byte Reload
	mov	r3, r7
	adc	r10, r12, #0
	umull	r2, r12, r8, r7
	ldr	r7, [sp, #64]           @ 4-byte Reload
	umull	r5, r4, r8, r0
	ldr	r0, [sp, #60]           @ 4-byte Reload
	umull	r1, lr, r8, r0
	umull	r11, r0, r8, r7
	adds	r2, r0, r2
	adcs	r2, r12, r1
	umlal	r0, r1, r8, r3
	ldr	r3, [sp, #24]           @ 4-byte Reload
	ldr	r8, [sp, #48]           @ 4-byte Reload
	adcs	r2, lr, r5
	adc	r5, r4, #0
	adds	r7, r3, r11
	ldr	r3, [sp, #20]           @ 4-byte Reload
	ldr	r11, [sp, #40]          @ 4-byte Reload
	adcs	r0, r3, r0
	str	r0, [sp, #24]           @ 4-byte Spill
	adcs	r0, r9, r1
	ldr	r1, [sp, #52]           @ 4-byte Reload
	str	r0, [sp, #20]           @ 4-byte Spill
	adcs	r0, r6, r2
	str	r0, [sp, #16]           @ 4-byte Spill
	adcs	r0, r10, r5
	ldr	r10, [sp, #44]          @ 4-byte Reload
	str	r0, [sp, #12]           @ 4-byte Spill
	mov	r0, #0
	adc	r0, r0, #0
	str	r0, [sp, #8]            @ 4-byte Spill
	mul	r5, r7, r10
	umull	r6, r0, r5, r11
	str	r0, [sp]                @ 4-byte Spill
	umull	r0, r3, r5, r8
	mov	r4, r6
	str	r0, [sp, #4]            @ 4-byte Spill
	ldr	r0, [sp, #68]           @ 4-byte Reload
	mov	r2, r3
	umlal	r2, r4, r5, r1
	umull	r9, r12, r5, r0
	umull	lr, r0, r5, r1
	adds	r3, r3, lr
	adcs	r0, r0, r6
	ldr	r3, [sp, #4]            @ 4-byte Reload
	ldr	r0, [sp]                @ 4-byte Reload
	adcs	r0, r0, r9
	adc	r1, r12, #0
	adds	r3, r3, r7
	ldr	r12, [sp, #64]          @ 4-byte Reload
	ldr	r3, [sp, #24]           @ 4-byte Reload
	adcs	r2, r2, r3
	ldr	r3, [sp, #28]           @ 4-byte Reload
	str	r2, [sp, #24]           @ 4-byte Spill
	ldr	r2, [sp, #20]           @ 4-byte Reload
	umull	r9, r7, r3, r12
	adcs	r2, r4, r2
	str	r2, [sp, #20]           @ 4-byte Spill
	ldr	r2, [sp, #16]           @ 4-byte Reload
	adcs	r0, r0, r2
	ldr	r2, [sp, #72]           @ 4-byte Reload
	str	r0, [sp, #16]           @ 4-byte Spill
	ldr	r0, [sp, #12]           @ 4-byte Reload
	adcs	r0, r1, r0
	ldr	r1, [sp, #60]           @ 4-byte Reload
	str	r0, [sp, #12]           @ 4-byte Spill
	ldr	r0, [sp, #8]            @ 4-byte Reload
	adc	r0, r0, #0
	str	r0, [sp, #8]            @ 4-byte Spill
	ldr	r0, [sp, #56]           @ 4-byte Reload
	umull	r6, r5, r3, r0
	umull	r0, r4, r3, r1
	umull	r1, lr, r3, r2
	adds	r1, r7, r1
	adcs	r1, lr, r0
	umlal	r7, r0, r3, r2
	ldr	r2, [sp, #24]           @ 4-byte Reload
	adcs	r1, r4, r6
	adc	r6, r5, #0
	adds	r3, r2, r9
	ldr	r2, [sp, #20]           @ 4-byte Reload
	adcs	r2, r2, r7
	str	r2, [sp, #28]           @ 4-byte Spill
	ldr	r2, [sp, #16]           @ 4-byte Reload
	adcs	r0, r2, r0
	str	r0, [sp, #24]           @ 4-byte Spill
	ldr	r0, [sp, #12]           @ 4-byte Reload
	adcs	r0, r0, r1
	ldr	r1, [sp, #52]           @ 4-byte Reload
	str	r0, [sp, #20]           @ 4-byte Spill
	ldr	r0, [sp, #8]            @ 4-byte Reload
	adcs	r0, r0, r6
	mul	r6, r3, r10
	str	r0, [sp, #16]           @ 4-byte Spill
	mov	r0, #0
	umull	r7, r9, r6, r11
	umull	r10, r4, r6, r8
	adc	r0, r0, #0
	mov	r2, r4
	mov	r5, r7
	str	r0, [sp, #12]           @ 4-byte Spill
	ldr	r0, [sp, #68]           @ 4-byte Reload
	umlal	r2, r5, r6, r1
	umull	r8, r12, r6, r0
	umull	lr, r0, r6, r1
	adds	r6, r4, lr
	adcs	r0, r0, r7
	adcs	r0, r9, r8
	adc	r1, r12, #0
	adds	r3, r10, r3
	ldr	r3, [sp, #28]           @ 4-byte Reload
	adcs	r2, r2, r3
	ldr	r3, [sp, #32]           @ 4-byte Reload
	str	r2, [sp, #28]           @ 4-byte Spill
	ldr	r2, [sp, #24]           @ 4-byte Reload
	adcs	r8, r5, r2
	ldr	r2, [sp, #20]           @ 4-byte Reload
	ldr	r5, [sp, #64]           @ 4-byte Reload
	adcs	r9, r0, r2
	ldr	r0, [sp, #16]           @ 4-byte Reload
	ldr	r2, [sp, #72]           @ 4-byte Reload
	umull	lr, r7, r3, r5
	ldr	r5, [sp, #52]           @ 4-byte Reload
	adcs	r11, r1, r0
	ldr	r0, [sp, #12]           @ 4-byte Reload
	ldr	r1, [sp, #60]           @ 4-byte Reload
	adc	r0, r0, #0
	str	r0, [sp, #24]           @ 4-byte Spill
	ldr	r0, [sp, #56]           @ 4-byte Reload
	umull	r6, r10, r3, r0
	umull	r0, r4, r3, r1
	umull	r1, r12, r3, r2
	adds	r1, r7, r1
	adcs	r1, r12, r0
	umlal	r7, r0, r3, r2
	ldr	r2, [sp, #28]           @ 4-byte Reload
	ldr	r12, [sp, #68]          @ 4-byte Reload
	adcs	r1, r4, r6
	ldr	r4, [sp, #40]           @ 4-byte Reload
	adc	r6, r10, #0
	adds	lr, r2, lr
	ldr	r2, [sp, #48]           @ 4-byte Reload
	adcs	r10, r8, r7
	adcs	r0, r9, r0
	str	r0, [sp, #72]           @ 4-byte Spill
	adcs	r0, r11, r1
	str	r0, [sp, #64]           @ 4-byte Spill
	ldr	r0, [sp, #24]           @ 4-byte Reload
	adcs	r8, r0, r6
	mov	r0, #0
	adc	r0, r0, #0
	str	r0, [sp, #60]           @ 4-byte Spill
	ldr	r0, [sp, #44]           @ 4-byte Reload
	mul	r6, lr, r0
	umull	r1, r3, r6, r5
	umull	r11, r7, r6, r2
	umull	r0, r9, r6, r4
	adds	r1, r7, r1
	adcs	r1, r3, r0
	umlal	r7, r0, r6, r5
	umull	r1, r3, r6, r12
	adcs	r1, r9, r1
	mov	r9, r5
	adc	r5, r3, #0
	adds	r3, r11, lr
	adcs	r3, r7, r10
	ldr	r7, [sp, #72]           @ 4-byte Reload
	adcs	r0, r0, r7
	ldr	r7, [sp, #64]           @ 4-byte Reload
	adcs	r1, r1, r7
	adcs	lr, r5, r8
	ldr	r5, [sp, #60]           @ 4-byte Reload
	adc	r8, r5, #0
	subs	r6, r3, r2
	sbcs	r5, r0, r9
	sbcs	r4, r1, r4
	sbcs	r7, lr, r12
	sbc	r2, r8, #0
	ands	r2, r2, #1
	movne	r5, r0
	ldr	r0, [sp, #36]           @ 4-byte Reload
	movne	r6, r3
	movne	r4, r1
	cmp	r2, #0
	movne	r7, lr
	str	r6, [r0]
	str	r5, [r0, #4]
	str	r4, [r0, #8]
	str	r7, [r0, #12]
	add	sp, sp, #76
	pop	{r4, r5, r6, r7, r8, r9, r10, r11, lr}
	mov	pc, lr
.Lfunc_end53:
	.size	mcl_fp_mont4L, .Lfunc_end53-mcl_fp_mont4L
	.cantunwind
	.fnend

	.globl	mcl_fp_montNF4L
	.align	2
	.type	mcl_fp_montNF4L,%function
mcl_fp_montNF4L:                        @ @mcl_fp_montNF4L
	.fnstart
@ BB#0:
	.save	{r4, r5, r6, r7, r8, r9, r10, r11, lr}
	push	{r4, r5, r6, r7, r8, r9, r10, r11, lr}
	.pad	#140
	sub	sp, sp, #140
	mov	r10, r3
	str	r0, [sp, #132]          @ 4-byte Spill
	ldr	lr, [r1]
	ldmib	r1, {r4, r8, r12}
	ldr	r3, [r2]
	ldr	r1, [r2, #4]
	ldr	r0, [r2, #8]
	ldr	r2, [r2, #12]
	umull	r6, r5, r2, r8
	str	r5, [sp, #124]          @ 4-byte Spill
	umull	r5, r7, r2, lr
	str	r6, [sp, #112]          @ 4-byte Spill
	str	r5, [sp, #128]          @ 4-byte Spill
	mov	r5, r6
	mov	r6, r7
	str	r7, [sp, #108]          @ 4-byte Spill
	umlal	r6, r5, r2, r4
	str	r5, [sp, #120]          @ 4-byte Spill
	umull	r7, r5, r0, r8
	str	r6, [sp, #116]          @ 4-byte Spill
	str	r5, [sp, #84]           @ 4-byte Spill
	umull	r5, r6, r0, lr
	str	r7, [sp, #72]           @ 4-byte Spill
	str	r5, [sp, #88]           @ 4-byte Spill
	str	r6, [sp, #68]           @ 4-byte Spill
	mov	r5, r6
	mov	r6, r7
	umlal	r5, r6, r0, r4
	str	r5, [sp, #76]           @ 4-byte Spill
	str	r6, [sp, #80]           @ 4-byte Spill
	umull	r6, r5, r1, r8
	str	r5, [sp, #44]           @ 4-byte Spill
	umull	r5, r7, r1, lr
	str	r6, [sp, #32]           @ 4-byte Spill
	str	r5, [sp, #48]           @ 4-byte Spill
	mov	r5, r6
	mov	r6, r7
	str	r7, [sp, #28]           @ 4-byte Spill
	umlal	r6, r5, r1, r4
	str	r5, [sp, #40]           @ 4-byte Spill
	umull	r9, r5, r8, r3
	str	r6, [sp, #36]           @ 4-byte Spill
	str	r5, [sp, #136]          @ 4-byte Spill
	umull	r6, r5, lr, r3
	mov	r8, r9
	str	r6, [sp, #4]            @ 4-byte Spill
	umull	r11, r6, r2, r12
	mov	lr, r5
	str	r6, [sp, #104]          @ 4-byte Spill
	umull	r7, r6, r2, r4
	umlal	lr, r8, r4, r3
	str	r11, [sp, #100]         @ 4-byte Spill
	str	r6, [sp, #96]           @ 4-byte Spill
	umull	r6, r2, r0, r12
	str	r7, [sp, #92]           @ 4-byte Spill
	str	r6, [sp, #60]           @ 4-byte Spill
	str	r2, [sp, #64]           @ 4-byte Spill
	umull	r6, r2, r0, r4
	str	r2, [sp, #56]           @ 4-byte Spill
	umull	r2, r0, r1, r12
	str	r6, [sp, #52]           @ 4-byte Spill
	str	r2, [sp, #20]           @ 4-byte Spill
	str	r0, [sp, #24]           @ 4-byte Spill
	umull	r2, r0, r1, r4
	str	r2, [sp, #12]           @ 4-byte Spill
	umull	r2, r6, r4, r3
	str	r0, [sp, #16]           @ 4-byte Spill
	umull	r0, r1, r12, r3
	ldr	r4, [r10, #4]
	adds	r2, r5, r2
	ldr	r5, [sp, #4]            @ 4-byte Reload
	adcs	r2, r6, r9
	ldr	r9, [r10, #8]
	ldr	r2, [sp, #136]          @ 4-byte Reload
	str	r4, [sp, #136]          @ 4-byte Spill
	adcs	r12, r2, r0
	ldr	r2, [r10, #-4]
	adc	r0, r1, #0
	str	r0, [sp]                @ 4-byte Spill
	ldr	r0, [r10]
	mul	r1, r5, r2
	mov	r7, r2
	umull	r3, r11, r1, r0
	str	r0, [sp, #8]            @ 4-byte Spill
	mov	r6, r0
	umull	r2, r0, r1, r9
	adds	r3, r3, r5
	umull	r3, r5, r1, r4
	adcs	r3, r3, lr
	ldr	lr, [r10, #12]
	adcs	r2, r2, r8
	umull	r4, r8, r1, lr
	adcs	r1, r4, r12
	ldr	r4, [sp]                @ 4-byte Reload
	adc	r4, r4, #0
	adds	r3, r3, r11
	adcs	r2, r2, r5
	adcs	r12, r1, r0
	ldr	r0, [sp, #28]           @ 4-byte Reload
	adc	r1, r4, r8
	ldr	r4, [sp, #12]           @ 4-byte Reload
	adds	r4, r0, r4
	ldr	r0, [sp, #32]           @ 4-byte Reload
	ldr	r4, [sp, #16]           @ 4-byte Reload
	adcs	r4, r4, r0
	ldr	r0, [sp, #44]           @ 4-byte Reload
	ldr	r4, [sp, #20]           @ 4-byte Reload
	adcs	r4, r0, r4
	ldr	r0, [sp, #24]           @ 4-byte Reload
	adc	r5, r0, #0
	ldr	r0, [sp, #48]           @ 4-byte Reload
	adds	r3, r0, r3
	ldr	r0, [sp, #36]           @ 4-byte Reload
	adcs	r2, r0, r2
	ldr	r0, [sp, #40]           @ 4-byte Reload
	adcs	r0, r0, r12
	mov	r12, r7
	adcs	r8, r4, r1
	ldr	r1, [sp, #136]          @ 4-byte Reload
	adc	r10, r5, #0
	mul	r5, r3, r7
	umull	r7, r11, r5, r6
	adds	r3, r7, r3
	umull	r3, r7, r5, r1
	adcs	r2, r3, r2
	umull	r3, r4, r5, r9
	adcs	r0, r3, r0
	umull	r3, r6, r5, lr
	adcs	r3, r3, r8
	ldr	r8, [sp, #8]            @ 4-byte Reload
	adc	r5, r10, #0
	adds	r2, r2, r11
	adcs	r0, r0, r7
	adcs	r3, r3, r4
	ldr	r4, [sp, #68]           @ 4-byte Reload
	adc	r7, r5, r6
	ldr	r5, [sp, #52]           @ 4-byte Reload
	ldr	r6, [sp, #88]           @ 4-byte Reload
	adds	r4, r4, r5
	ldr	r5, [sp, #56]           @ 4-byte Reload
	ldr	r4, [sp, #72]           @ 4-byte Reload
	adcs	r4, r5, r4
	ldr	r5, [sp, #60]           @ 4-byte Reload
	ldr	r4, [sp, #84]           @ 4-byte Reload
	adcs	r4, r4, r5
	ldr	r5, [sp, #64]           @ 4-byte Reload
	adc	r5, r5, #0
	adds	r2, r6, r2
	ldr	r6, [sp, #76]           @ 4-byte Reload
	adcs	r0, r6, r0
	ldr	r6, [sp, #80]           @ 4-byte Reload
	adcs	r3, r6, r3
	adcs	r6, r4, r7
	adc	r10, r5, #0
	mul	r5, r2, r12
	umull	r7, r11, r5, r8
	adds	r2, r7, r2
	umull	r2, r7, r5, r1
	adcs	r0, r2, r0
	umull	r2, r4, r5, r9
	adcs	r2, r2, r3
	umull	r3, r1, r5, lr
	adcs	r3, r3, r6
	ldr	r6, [sp, #128]          @ 4-byte Reload
	adc	r5, r10, #0
	adds	r0, r0, r11
	adcs	r2, r2, r7
	adcs	r3, r3, r4
	ldr	r4, [sp, #108]          @ 4-byte Reload
	adc	r1, r5, r1
	ldr	r5, [sp, #92]           @ 4-byte Reload
	adds	r4, r4, r5
	ldr	r5, [sp, #96]           @ 4-byte Reload
	ldr	r4, [sp, #112]          @ 4-byte Reload
	adcs	r4, r5, r4
	ldr	r5, [sp, #100]          @ 4-byte Reload
	ldr	r4, [sp, #124]          @ 4-byte Reload
	adcs	r4, r4, r5
	ldr	r5, [sp, #104]          @ 4-byte Reload
	adc	r5, r5, #0
	adds	r0, r6, r0
	ldr	r6, [sp, #116]          @ 4-byte Reload
	adcs	r2, r6, r2
	ldr	r6, [sp, #120]          @ 4-byte Reload
	adcs	r3, r6, r3
	adcs	r11, r4, r1
	adc	r10, r5, #0
	mul	r5, r0, r12
	umull	r7, r1, r5, r8
	adds	r0, r7, r0
	ldr	r7, [sp, #136]          @ 4-byte Reload
	umull	r0, r12, r5, r9
	umull	r6, r4, r5, r7
	adcs	r2, r6, r2
	adcs	r0, r0, r3
	umull	r3, r6, r5, lr
	adcs	r3, r3, r11
	adc	r5, r10, #0
	adds	r1, r2, r1
	adcs	r0, r0, r4
	adcs	r2, r3, r12
	adc	r3, r5, r6
	subs	r4, r1, r8
	sbcs	r7, r0, r7
	sbcs	r6, r2, r9
	sbc	r5, r3, lr
	cmp	r5, #0
	movlt	r7, r0
	ldr	r0, [sp, #132]          @ 4-byte Reload
	movlt	r4, r1
	movlt	r6, r2
	cmp	r5, #0
	movlt	r5, r3
	stm	r0, {r4, r7}
	str	r6, [r0, #8]
	str	r5, [r0, #12]
	add	sp, sp, #140
	pop	{r4, r5, r6, r7, r8, r9, r10, r11, lr}
	mov	pc, lr
.Lfunc_end54:
	.size	mcl_fp_montNF4L, .Lfunc_end54-mcl_fp_montNF4L
	.cantunwind
	.fnend

	.globl	mcl_fp_montRed4L
	.align	2
	.type	mcl_fp_montRed4L,%function
mcl_fp_montRed4L:                       @ @mcl_fp_montRed4L
	.fnstart
@ BB#0:
	.save	{r4, r5, r6, r7, r8, r9, r10, r11, lr}
	push	{r4, r5, r6, r7, r8, r9, r10, r11, lr}
	.pad	#60
	sub	sp, sp, #60
	ldr	r7, [r1, #4]
	ldr	r6, [r2, #-4]
	ldr	r10, [r1]
	ldr	r3, [r2, #8]
	ldr	r8, [r2]
	ldr	r12, [r2, #4]
	ldr	r2, [r2, #12]
	str	r0, [sp, #52]           @ 4-byte Spill
	str	r7, [sp, #28]           @ 4-byte Spill
	ldr	r7, [r1, #8]
	str	r6, [sp, #56]           @ 4-byte Spill
	str	r3, [sp, #40]           @ 4-byte Spill
	str	r2, [sp, #36]           @ 4-byte Spill
	str	r8, [sp, #32]           @ 4-byte Spill
	str	r7, [sp, #48]           @ 4-byte Spill
	ldr	r7, [r1, #12]
	str	r7, [sp, #44]           @ 4-byte Spill
	mul	r7, r10, r6
	umull	r6, r5, r7, r3
	str	r5, [sp, #20]           @ 4-byte Spill
	mov	r5, r3
	umull	r4, r3, r7, r8
	mov	lr, r6
	str	r4, [sp, #24]           @ 4-byte Spill
	umull	r9, r4, r7, r2
	umull	r11, r2, r7, r12
	mov	r0, r3
	adds	r3, r3, r11
	umlal	r0, lr, r7, r12
	adcs	r2, r2, r6
	ldr	r6, [sp, #56]           @ 4-byte Reload
	ldr	r2, [sp, #20]           @ 4-byte Reload
	adcs	r2, r2, r9
	str	r2, [sp, #20]           @ 4-byte Spill
	adc	r2, r4, #0
	str	r2, [sp, #16]           @ 4-byte Spill
	ldr	r2, [sp, #24]           @ 4-byte Reload
	adds	r4, r10, r2
	ldr	r2, [sp, #28]           @ 4-byte Reload
	add	r10, r1, #16
	adcs	r11, r2, r0
	mul	r4, r11, r6
	umull	r9, r0, r4, r5
	str	r0, [sp, #24]           @ 4-byte Spill
	umull	r0, r2, r4, r8
	mov	r5, r9
	str	r0, [sp, #28]           @ 4-byte Spill
	ldr	r0, [r1, #28]
	mov	r7, r2
	umlal	r7, r5, r4, r12
	str	r0, [sp, #12]           @ 4-byte Spill
	ldm	r10, {r1, r8, r10}
	ldr	r3, [sp, #48]           @ 4-byte Reload
	adcs	r0, r3, lr
	ldr	r3, [sp, #44]           @ 4-byte Reload
	str	r0, [sp, #4]            @ 4-byte Spill
	ldr	r0, [sp, #20]           @ 4-byte Reload
	adcs	r3, r3, r0
	ldr	r0, [sp, #16]           @ 4-byte Reload
	str	r3, [sp, #48]           @ 4-byte Spill
	adcs	r1, r1, r0
	adcs	r0, r8, #0
	str	r1, [sp, #44]           @ 4-byte Spill
	ldr	r8, [sp, #32]           @ 4-byte Reload
	str	r0, [sp, #20]           @ 4-byte Spill
	adcs	r0, r10, #0
	ldr	r10, [sp, #36]          @ 4-byte Reload
	str	r0, [sp, #16]           @ 4-byte Spill
	ldr	r0, [sp, #12]           @ 4-byte Reload
	umull	r1, lr, r4, r10
	adcs	r0, r0, #0
	str	r0, [sp, #12]           @ 4-byte Spill
	mov	r0, #0
	adc	r0, r0, #0
	str	r0, [sp, #8]            @ 4-byte Spill
	umull	r3, r0, r4, r12
	adds	r3, r2, r3
	ldr	r2, [sp, #28]           @ 4-byte Reload
	adcs	r0, r0, r9
	ldr	r9, [sp, #40]           @ 4-byte Reload
	ldr	r0, [sp, #24]           @ 4-byte Reload
	adcs	r0, r0, r1
	str	r0, [sp]                @ 4-byte Spill
	ldr	r0, [sp, #4]            @ 4-byte Reload
	adc	r1, lr, #0
	adds	r2, r2, r11
	adcs	r11, r7, r0
	mul	r3, r11, r6
	umull	r2, r0, r3, r9
	str	r0, [sp, #24]           @ 4-byte Spill
	umull	r0, r6, r3, r8
	mov	r7, r2
	str	r0, [sp, #28]           @ 4-byte Spill
	ldr	r0, [sp, #48]           @ 4-byte Reload
	mov	r4, r6
	umlal	r4, r7, r3, r12
	adcs	r0, r5, r0
	ldr	r5, [sp]                @ 4-byte Reload
	str	r0, [sp, #48]           @ 4-byte Spill
	ldr	r0, [sp, #44]           @ 4-byte Reload
	adcs	r0, r5, r0
	str	r0, [sp, #44]           @ 4-byte Spill
	ldr	r0, [sp, #20]           @ 4-byte Reload
	adcs	r0, r1, r0
	umull	r1, r5, r3, r10
	str	r0, [sp, #20]           @ 4-byte Spill
	ldr	r0, [sp, #16]           @ 4-byte Reload
	adcs	r0, r0, #0
	str	r0, [sp, #16]           @ 4-byte Spill
	ldr	r0, [sp, #12]           @ 4-byte Reload
	adcs	r0, r0, #0
	str	r0, [sp, #12]           @ 4-byte Spill
	ldr	r0, [sp, #8]            @ 4-byte Reload
	adc	r0, r0, #0
	str	r0, [sp, #8]            @ 4-byte Spill
	umull	lr, r0, r3, r12
	adds	r3, r6, lr
	mov	lr, r8
	adcs	r0, r0, r2
	ldr	r2, [sp, #28]           @ 4-byte Reload
	ldr	r3, [sp, #44]           @ 4-byte Reload
	ldr	r0, [sp, #24]           @ 4-byte Reload
	adcs	r0, r0, r1
	adc	r1, r5, #0
	adds	r2, r2, r11
	ldr	r2, [sp, #48]           @ 4-byte Reload
	adcs	r2, r4, r2
	adcs	r3, r7, r3
	str	r3, [sp, #48]           @ 4-byte Spill
	ldr	r3, [sp, #20]           @ 4-byte Reload
	adcs	r0, r0, r3
	mov	r3, r9
	str	r0, [sp, #44]           @ 4-byte Spill
	ldr	r0, [sp, #16]           @ 4-byte Reload
	adcs	r11, r1, r0
	ldr	r0, [sp, #12]           @ 4-byte Reload
	adcs	r0, r0, #0
	str	r0, [sp, #28]           @ 4-byte Spill
	ldr	r0, [sp, #8]            @ 4-byte Reload
	adc	r0, r0, #0
	str	r0, [sp, #24]           @ 4-byte Spill
	ldr	r0, [sp, #56]           @ 4-byte Reload
	mul	r5, r2, r0
	umull	r4, r0, r5, r12
	umull	r8, r6, r5, lr
	adds	r4, r6, r4
	umull	r1, r4, r5, r3
	adcs	r0, r0, r1
	umlal	r6, r1, r5, r12
	umull	r0, r7, r5, r10
	adcs	r0, r4, r0
	ldr	r4, [sp, #44]           @ 4-byte Reload
	adc	r5, r7, #0
	adds	r2, r8, r2
	ldr	r2, [sp, #48]           @ 4-byte Reload
	adcs	r2, r6, r2
	adcs	r1, r1, r4
	ldr	r4, [sp, #28]           @ 4-byte Reload
	adcs	r0, r0, r11
	adcs	r9, r5, r4
	ldr	r4, [sp, #24]           @ 4-byte Reload
	adc	r8, r4, #0
	subs	r6, r2, lr
	sbcs	r5, r1, r12
	sbcs	r4, r0, r3
	sbcs	r7, r9, r10
	sbc	r3, r8, #0
	ands	r3, r3, #1
	movne	r4, r0
	ldr	r0, [sp, #52]           @ 4-byte Reload
	movne	r6, r2
	movne	r5, r1
	cmp	r3, #0
	movne	r7, r9
	str	r6, [r0]
	str	r5, [r0, #4]
	str	r4, [r0, #8]
	str	r7, [r0, #12]
	add	sp, sp, #60
	pop	{r4, r5, r6, r7, r8, r9, r10, r11, lr}
	mov	pc, lr
.Lfunc_end55:
	.size	mcl_fp_montRed4L, .Lfunc_end55-mcl_fp_montRed4L
	.cantunwind
	.fnend

	.globl	mcl_fp_addPre4L
	.align	2
	.type	mcl_fp_addPre4L,%function
mcl_fp_addPre4L:                        @ @mcl_fp_addPre4L
	.fnstart
@ BB#0:
	.save	{r4, r5, r6, lr}
	push	{r4, r5, r6, lr}
	ldm	r1, {r3, r12, lr}
	ldr	r1, [r1, #12]
	ldm	r2, {r4, r5, r6}
	ldr	r2, [r2, #12]
	adds	r3, r4, r3
	adcs	r5, r5, r12
	adcs	r6, r6, lr
	adcs	r1, r2, r1
	stm	r0, {r3, r5, r6}
	str	r1, [r0, #12]
	mov	r0, #0
	adc	r0, r0, #0
	pop	{r4, r5, r6, lr}
	mov	pc, lr
.Lfunc_end56:
	.size	mcl_fp_addPre4L, .Lfunc_end56-mcl_fp_addPre4L
	.cantunwind
	.fnend

	.globl	mcl_fp_subPre4L
	.align	2
	.type	mcl_fp_subPre4L,%function
mcl_fp_subPre4L:                        @ @mcl_fp_subPre4L
	.fnstart
@ BB#0:
	.save	{r4, r5, r6, lr}
	push	{r4, r5, r6, lr}
	ldm	r2, {r3, r12, lr}
	ldr	r2, [r2, #12]
	ldm	r1, {r4, r5, r6}
	ldr	r1, [r1, #12]
	subs	r3, r4, r3
	sbcs	r5, r5, r12
	sbcs	r6, r6, lr
	sbcs	r1, r1, r2
	stm	r0, {r3, r5, r6}
	str	r1, [r0, #12]
	mov	r0, #0
	sbc	r0, r0, #0
	and	r0, r0, #1
	pop	{r4, r5, r6, lr}
	mov	pc, lr
.Lfunc_end57:
	.size	mcl_fp_subPre4L, .Lfunc_end57-mcl_fp_subPre4L
	.cantunwind
	.fnend

	.globl	mcl_fp_shr1_4L
	.align	2
	.type	mcl_fp_shr1_4L,%function
mcl_fp_shr1_4L:                         @ @mcl_fp_shr1_4L
	.fnstart
@ BB#0:
	.save	{r11, lr}
	push	{r11, lr}
	ldr	r3, [r1, #4]
	ldr	r12, [r1]
	ldr	lr, [r1, #12]
	ldr	r2, [r1, #8]
	lsrs	r1, r3, #1
	lsr	r3, r3, #1
	rrx	r12, r12
	lsrs	r1, lr, #1
	orr	r3, r3, r2, lsl #31
	rrx	r1, r2
	lsr	r2, lr, #1
	str	r12, [r0]
	str	r3, [r0, #4]
	str	r1, [r0, #8]
	str	r2, [r0, #12]
	pop	{r11, lr}
	mov	pc, lr
.Lfunc_end58:
	.size	mcl_fp_shr1_4L, .Lfunc_end58-mcl_fp_shr1_4L
	.cantunwind
	.fnend

	.globl	mcl_fp_add4L
	.align	2
	.type	mcl_fp_add4L,%function
mcl_fp_add4L:                           @ @mcl_fp_add4L
	.fnstart
@ BB#0:
	.save	{r4, r5, r6, r7, r11, lr}
	push	{r4, r5, r6, r7, r11, lr}
	ldm	r1, {r12, lr}
	ldr	r4, [r1, #8]
	ldr	r1, [r1, #12]
	ldm	r2, {r5, r6, r7}
	ldr	r2, [r2, #12]
	adds	r5, r5, r12
	adcs	r6, r6, lr
	adcs	r7, r7, r4
	stm	r0, {r5, r6, r7}
	adcs	r4, r2, r1
	mov	r1, #0
	ldr	r2, [r3]
	adc	lr, r1, #0
	str	r4, [r0, #12]
	ldmib	r3, {r1, r12}
	ldr	r3, [r3, #12]
	subs	r5, r5, r2
	sbcs	r2, r6, r1
	sbcs	r1, r7, r12
	sbcs	r12, r4, r3
	sbc	r3, lr, #0
	tst	r3, #1
	streq	r5, [r0]
	streq	r2, [r0, #4]
	streq	r1, [r0, #8]
	streq	r12, [r0, #12]
	pop	{r4, r5, r6, r7, r11, lr}
	mov	pc, lr
.Lfunc_end59:
	.size	mcl_fp_add4L, .Lfunc_end59-mcl_fp_add4L
	.cantunwind
	.fnend

	.globl	mcl_fp_addNF4L
	.align	2
	.type	mcl_fp_addNF4L,%function
mcl_fp_addNF4L:                         @ @mcl_fp_addNF4L
	.fnstart
@ BB#0:
	.save	{r4, r5, r6, r7, r8, lr}
	push	{r4, r5, r6, r7, r8, lr}
	ldm	r1, {r12, lr}
	ldr	r4, [r1, #8]
	ldr	r1, [r1, #12]
	ldm	r2, {r5, r6, r7}
	ldr	r2, [r2, #12]
	adds	r5, r5, r12
	adcs	r6, r6, lr
	adcs	r7, r7, r4
	adc	r8, r2, r1
	ldm	r3, {r2, r4, r12, lr}
	subs	r2, r5, r2
	sbcs	r4, r6, r4
	sbcs	r3, r7, r12
	sbc	r1, r8, lr
	cmp	r1, #0
	movlt	r2, r5
	movlt	r4, r6
	movlt	r3, r7
	cmp	r1, #0
	movlt	r1, r8
	stm	r0, {r2, r4}
	str	r3, [r0, #8]
	str	r1, [r0, #12]
	pop	{r4, r5, r6, r7, r8, lr}
	mov	pc, lr
.Lfunc_end60:
	.size	mcl_fp_addNF4L, .Lfunc_end60-mcl_fp_addNF4L
	.cantunwind
	.fnend

	.globl	mcl_fp_sub4L
	.align	2
	.type	mcl_fp_sub4L,%function
mcl_fp_sub4L:                           @ @mcl_fp_sub4L
	.fnstart
@ BB#0:
	.save	{r4, r5, r6, r7, r8, lr}
	push	{r4, r5, r6, r7, r8, lr}
	ldm	r2, {r12, lr}
	ldr	r4, [r2, #8]
	ldr	r5, [r2, #12]
	ldm	r1, {r2, r6, r7}
	ldr	r1, [r1, #12]
	subs	r8, r2, r12
	sbcs	r2, r6, lr
	str	r8, [r0]
	sbcs	r12, r7, r4
	sbcs	lr, r1, r5
	mov	r1, #0
	sbc	r1, r1, #0
	stmib	r0, {r2, r12, lr}
	tst	r1, #1
	popeq	{r4, r5, r6, r7, r8, lr}
	moveq	pc, lr
	ldm	r3, {r1, r4, r5}
	ldr	r3, [r3, #12]
	adds	r1, r1, r8
	adcs	r2, r4, r2
	adcs	r7, r5, r12
	adc	r3, r3, lr
	stm	r0, {r1, r2, r7}
	str	r3, [r0, #12]
	pop	{r4, r5, r6, r7, r8, lr}
	mov	pc, lr
.Lfunc_end61:
	.size	mcl_fp_sub4L, .Lfunc_end61-mcl_fp_sub4L
	.cantunwind
	.fnend

	.globl	mcl_fp_subNF4L
	.align	2
	.type	mcl_fp_subNF4L,%function
mcl_fp_subNF4L:                         @ @mcl_fp_subNF4L
	.fnstart
@ BB#0:
	.save	{r4, r5, r6, r7, r8, lr}
	push	{r4, r5, r6, r7, r8, lr}
	ldm	r2, {r12, lr}
	ldr	r4, [r2, #8]
	ldr	r2, [r2, #12]
	ldm	r1, {r5, r6, r7}
	ldr	r1, [r1, #12]
	subs	r5, r5, r12
	sbcs	r6, r6, lr
	sbcs	r8, r7, r4
	sbc	r1, r1, r2
	ldm	r3, {r2, r4, r12, lr}
	adds	r2, r5, r2
	adcs	r4, r6, r4
	adcs	r3, r8, r12
	adc	r7, r1, lr
	cmp	r1, #0
	movge	r2, r5
	movge	r4, r6
	movge	r3, r8
	cmp	r1, #0
	movge	r7, r1
	stm	r0, {r2, r4}
	str	r3, [r0, #8]
	str	r7, [r0, #12]
	pop	{r4, r5, r6, r7, r8, lr}
	mov	pc, lr
.Lfunc_end62:
	.size	mcl_fp_subNF4L, .Lfunc_end62-mcl_fp_subNF4L
	.cantunwind
	.fnend

	.globl	mcl_fpDbl_add4L
	.align	2
	.type	mcl_fpDbl_add4L,%function
mcl_fpDbl_add4L:                        @ @mcl_fpDbl_add4L
	.fnstart
@ BB#0:
	.save	{r4, r5, r6, r7, r8, r9, r10, r11, lr}
	push	{r4, r5, r6, r7, r8, r9, r10, r11, lr}
	.pad	#16
	sub	sp, sp, #16
	ldm	r1, {r8, r9, r10, r11}
	ldr	r7, [r1, #16]
	str	r7, [sp]                @ 4-byte Spill
	ldr	r7, [r1, #20]
	str	r7, [sp, #4]            @ 4-byte Spill
	ldr	r7, [r1, #24]
	ldr	r1, [r1, #28]
	str	r7, [sp, #8]            @ 4-byte Spill
	str	r1, [sp, #12]           @ 4-byte Spill
	ldm	r2, {r1, r6, r7, r12, lr}
	ldr	r4, [r2, #20]
	ldr	r5, [r2, #24]
	ldr	r2, [r2, #28]
	adds	r1, r1, r8
	adcs	r6, r6, r9
	adcs	r7, r7, r10
	adcs	r12, r12, r11
	stm	r0, {r1, r6, r7, r12}
	mov	r1, #0
	ldr	r7, [sp]                @ 4-byte Reload
	ldr	r6, [sp, #4]            @ 4-byte Reload
	adcs	r7, lr, r7
	adcs	r6, r4, r6
	ldr	r4, [sp, #8]            @ 4-byte Reload
	adcs	r8, r5, r4
	ldr	r5, [sp, #12]           @ 4-byte Reload
	ldr	r4, [r3]
	adcs	lr, r2, r5
	adc	r12, r1, #0
	ldmib	r3, {r1, r2, r3}
	subs	r4, r7, r4
	sbcs	r1, r6, r1
	sbcs	r2, r8, r2
	sbcs	r3, lr, r3
	sbc	r5, r12, #0
	ands	r5, r5, #1
	movne	r4, r7
	movne	r1, r6
	movne	r2, r8
	cmp	r5, #0
	movne	r3, lr
	str	r4, [r0, #16]
	str	r1, [r0, #20]
	str	r2, [r0, #24]
	str	r3, [r0, #28]
	add	sp, sp, #16
	pop	{r4, r5, r6, r7, r8, r9, r10, r11, lr}
	mov	pc, lr
.Lfunc_end63:
	.size	mcl_fpDbl_add4L, .Lfunc_end63-mcl_fpDbl_add4L
	.cantunwind
	.fnend

	.globl	mcl_fpDbl_sub4L
	.align	2
	.type	mcl_fpDbl_sub4L,%function
mcl_fpDbl_sub4L:                        @ @mcl_fpDbl_sub4L
	.fnstart
@ BB#0:
	.save	{r4, r5, r6, r7, r8, r9, r10, r11, lr}
	push	{r4, r5, r6, r7, r8, r9, r10, r11, lr}
	.pad	#16
	sub	sp, sp, #16
	ldm	r2, {r8, r9, r10, r11}
	ldr	r7, [r2, #16]
	str	r7, [sp]                @ 4-byte Spill
	ldr	r7, [r2, #20]
	str	r7, [sp, #4]            @ 4-byte Spill
	ldr	r7, [r2, #24]
	ldr	r2, [r2, #28]
	str	r7, [sp, #8]            @ 4-byte Spill
	str	r2, [sp, #12]           @ 4-byte Spill
	ldm	r1, {r2, r6, r7, r12, lr}
	ldr	r4, [r1, #20]
	ldr	r5, [r1, #24]
	ldr	r1, [r1, #28]
	subs	r2, r2, r8
	str	r2, [r0]
	sbcs	r2, r6, r9
	ldr	r6, [sp, #4]            @ 4-byte Reload
	str	r2, [r0, #4]
	sbcs	r2, r7, r10
	ldr	r7, [sp]                @ 4-byte Reload
	str	r2, [r0, #8]
	sbcs	r2, r12, r11
	str	r2, [r0, #12]
	mov	r2, #0
	sbcs	r7, lr, r7
	sbcs	r6, r4, r6
	ldr	r4, [sp, #8]            @ 4-byte Reload
	sbcs	r5, r5, r4
	ldr	r4, [sp, #12]           @ 4-byte Reload
	sbcs	lr, r1, r4
	ldr	r4, [r3]
	ldr	r1, [r3, #8]
	sbc	r12, r2, #0
	ldr	r2, [r3, #4]
	ldr	r3, [r3, #12]
	adds	r4, r7, r4
	adcs	r2, r6, r2
	adcs	r1, r5, r1
	adc	r3, lr, r3
	ands	r12, r12, #1
	moveq	r4, r7
	moveq	r2, r6
	moveq	r1, r5
	cmp	r12, #0
	moveq	r3, lr
	str	r4, [r0, #16]
	str	r2, [r0, #20]
	str	r1, [r0, #24]
	str	r3, [r0, #28]
	add	sp, sp, #16
	pop	{r4, r5, r6, r7, r8, r9, r10, r11, lr}
	mov	pc, lr
.Lfunc_end64:
	.size	mcl_fpDbl_sub4L, .Lfunc_end64-mcl_fpDbl_sub4L
	.cantunwind
	.fnend

	.globl	mcl_fp_mulUnitPre5L
	.align	2
	.type	mcl_fp_mulUnitPre5L,%function
mcl_fp_mulUnitPre5L:                    @ @mcl_fp_mulUnitPre5L
	.fnstart
@ BB#0:
	.save	{r4, r5, r6, r7, r8, r9, r10, lr}
	push	{r4, r5, r6, r7, r8, r9, r10, lr}
	ldr	r12, [r1]
	ldmib	r1, {r3, lr}
	ldr	r10, [r1, #12]
	ldr	r8, [r1, #16]
	umull	r4, r9, lr, r2
	umull	r1, r6, r12, r2
	mov	r7, r6
	mov	r5, r4
	umlal	r7, r5, r3, r2
	stm	r0, {r1, r7}
	str	r5, [r0, #8]
	umull	r5, r7, r3, r2
	umull	r1, r12, r10, r2
	adds	r3, r6, r5
	adcs	r3, r7, r4
	adcs	r1, r9, r1
	str	r1, [r0, #12]
	umull	r1, r3, r8, r2
	adcs	r1, r12, r1
	str	r1, [r0, #16]
	adc	r1, r3, #0
	str	r1, [r0, #20]
	pop	{r4, r5, r6, r7, r8, r9, r10, lr}
	mov	pc, lr
.Lfunc_end65:
	.size	mcl_fp_mulUnitPre5L, .Lfunc_end65-mcl_fp_mulUnitPre5L
	.cantunwind
	.fnend

	.globl	mcl_fpDbl_mulPre5L
	.align	2
	.type	mcl_fpDbl_mulPre5L,%function
mcl_fpDbl_mulPre5L:                     @ @mcl_fpDbl_mulPre5L
	.fnstart
@ BB#0:
	.save	{r4, r5, r6, r7, r8, r9, r10, r11, lr}
	push	{r4, r5, r6, r7, r8, r9, r10, r11, lr}
	.pad	#36
	sub	sp, sp, #36
	str	r2, [sp, #32]           @ 4-byte Spill
	ldr	r3, [r2]
	ldm	r1, {r12, lr}
	ldr	r9, [r1, #8]
	ldr	r10, [r1, #12]
	umull	r5, r4, r12, r3
	umull	r6, r7, lr, r3
	adds	r6, r4, r6
	str	r5, [sp, #24]           @ 4-byte Spill
	umull	r5, r6, r9, r3
	adcs	r7, r7, r5
	umlal	r4, r5, lr, r3
	umull	r7, r11, r10, r3
	adcs	r6, r6, r7
	ldr	r7, [r1, #16]
	str	r6, [sp, #28]           @ 4-byte Spill
	umull	r6, r8, r7, r3
	ldr	r3, [sp, #24]           @ 4-byte Reload
	adcs	r11, r11, r6
	ldr	r6, [r2, #4]
	str	r3, [r0]
	umull	r3, r2, r12, r6
	adc	r12, r8, #0
	adds	r8, r3, r4
	str	r2, [sp, #24]           @ 4-byte Spill
	umull	r3, r2, lr, r6
	str	r2, [sp, #20]           @ 4-byte Spill
	ldr	r2, [sp, #28]           @ 4-byte Reload
	adcs	r5, r3, r5
	umull	r3, lr, r10, r6
	umull	r4, r10, r9, r6
	str	r8, [r0, #4]
	adcs	r4, r4, r2
	umull	r2, r9, r7, r6
	adcs	r3, r3, r11
	adcs	r7, r2, r12
	mov	r2, #0
	adc	r6, r2, #0
	ldr	r2, [sp, #24]           @ 4-byte Reload
	adds	r5, r5, r2
	ldr	r2, [sp, #20]           @ 4-byte Reload
	adcs	r11, r4, r2
	adcs	r2, r3, r10
	ldr	r3, [sp, #32]           @ 4-byte Reload
	str	r2, [sp, #16]           @ 4-byte Spill
	adcs	r2, r7, lr
	ldr	r7, [r1]
	str	r2, [sp, #8]            @ 4-byte Spill
	adc	r2, r6, r9
	str	r2, [sp, #24]           @ 4-byte Spill
	ldr	r2, [r3, #8]
	str	r7, [sp, #28]           @ 4-byte Spill
	ldmib	r1, {r8, lr}
	ldr	r6, [r1, #12]
	umull	r12, r4, r7, r2
	adds	r7, r12, r5
	str	r4, [sp, #12]           @ 4-byte Spill
	ldr	r12, [r1, #16]
	str	r7, [sp, #20]           @ 4-byte Spill
	umull	r5, r7, r8, r2
	str	r7, [sp, #4]            @ 4-byte Spill
	adcs	r10, r5, r11
	umull	r5, r7, lr, r2
	str	r7, [sp]                @ 4-byte Spill
	ldr	r7, [sp, #16]           @ 4-byte Reload
	adcs	r9, r5, r7
	umull	r4, r7, r6, r2
	mov	r5, #0
	str	r7, [sp, #16]           @ 4-byte Spill
	ldr	r7, [sp, #8]            @ 4-byte Reload
	adcs	r4, r4, r7
	umull	r11, r7, r12, r2
	ldr	r2, [sp, #24]           @ 4-byte Reload
	adcs	r2, r11, r2
	adc	r11, r5, #0
	ldr	r5, [sp, #12]           @ 4-byte Reload
	adds	r5, r10, r5
	str	r5, [sp, #12]           @ 4-byte Spill
	ldr	r5, [sp, #4]            @ 4-byte Reload
	adcs	r5, r9, r5
	str	r5, [sp, #8]            @ 4-byte Spill
	ldr	r5, [sp]                @ 4-byte Reload
	adcs	r4, r4, r5
	ldr	r5, [sp, #16]           @ 4-byte Reload
	adcs	r10, r2, r5
	adc	r2, r11, r7
	str	r2, [sp, #16]           @ 4-byte Spill
	ldr	r2, [sp, #20]           @ 4-byte Reload
	str	r2, [r0, #8]
	ldr	r2, [r3, #12]
	umull	r11, r3, r6, r2
	str	r3, [sp, #20]           @ 4-byte Spill
	umull	r6, r3, lr, r2
	umull	lr, r9, r8, r2
	str	r3, [sp, #24]           @ 4-byte Spill
	ldr	r3, [sp, #28]           @ 4-byte Reload
	umull	r7, r8, r3, r2
	ldr	r3, [sp, #12]           @ 4-byte Reload
	adds	r3, r7, r3
	str	r3, [sp, #28]           @ 4-byte Spill
	ldr	r3, [sp, #8]            @ 4-byte Reload
	adcs	r5, lr, r3
	mov	r3, #0
	adcs	r6, r6, r4
	umull	r4, lr, r12, r2
	ldr	r2, [sp, #16]           @ 4-byte Reload
	adcs	r7, r11, r10
	adcs	r2, r4, r2
	adc	r3, r3, #0
	adds	r10, r5, r8
	adcs	r11, r6, r9
	ldr	r6, [sp, #24]           @ 4-byte Reload
	adcs	r7, r7, r6
	str	r7, [sp, #24]           @ 4-byte Spill
	ldr	r7, [sp, #20]           @ 4-byte Reload
	adcs	r2, r2, r7
	str	r2, [sp, #20]           @ 4-byte Spill
	ldr	r2, [sp, #28]           @ 4-byte Reload
	str	r2, [r0, #12]
	adc	r2, r3, lr
	ldr	r3, [r1]
	str	r2, [sp, #28]           @ 4-byte Spill
	ldr	r2, [sp, #32]           @ 4-byte Reload
	ldr	r4, [r2, #16]
	ldmib	r1, {r2, r5, r6}
	ldr	r1, [r1, #16]
	umull	lr, r9, r6, r4
	umull	r6, r8, r5, r4
	umull	r5, r7, r2, r4
	umull	r2, r12, r3, r4
	adds	r10, r2, r10
	ldr	r2, [sp, #24]           @ 4-byte Reload
	adcs	r3, r5, r11
	str	r10, [r0, #16]
	adcs	r5, r6, r2
	ldr	r2, [sp, #20]           @ 4-byte Reload
	adcs	r6, lr, r2
	umull	r2, lr, r1, r4
	ldr	r1, [sp, #28]           @ 4-byte Reload
	adcs	r1, r2, r1
	mov	r2, #0
	adc	r2, r2, #0
	adds	r3, r3, r12
	adcs	r7, r5, r7
	str	r3, [r0, #20]
	adcs	r6, r6, r8
	str	r7, [r0, #24]
	adcs	r1, r1, r9
	str	r6, [r0, #28]
	adc	r2, r2, lr
	str	r1, [r0, #32]
	str	r2, [r0, #36]
	add	sp, sp, #36
	pop	{r4, r5, r6, r7, r8, r9, r10, r11, lr}
	mov	pc, lr
.Lfunc_end66:
	.size	mcl_fpDbl_mulPre5L, .Lfunc_end66-mcl_fpDbl_mulPre5L
	.cantunwind
	.fnend

	.globl	mcl_fpDbl_sqrPre5L
	.align	2
	.type	mcl_fpDbl_sqrPre5L,%function
mcl_fpDbl_sqrPre5L:                     @ @mcl_fpDbl_sqrPre5L
	.fnstart
@ BB#0:
	.save	{r4, r5, r6, r7, r8, r9, r10, r11, lr}
	push	{r4, r5, r6, r7, r8, r9, r10, r11, lr}
	.pad	#32
	sub	sp, sp, #32
	ldm	r1, {r2, r3, r12}
	ldr	lr, [r1, #16]
	ldr	r9, [r1, #12]
	umull	r5, r6, r2, r2
	umull	r7, r11, r3, r2
	str	r5, [r0]
	umull	r5, r4, lr, r2
	adds	r8, r6, r7
	str	r5, [sp, #24]           @ 4-byte Spill
	umull	r5, r10, r12, r2
	str	r4, [sp, #28]           @ 4-byte Spill
	adcs	r4, r11, r5
	umlal	r6, r5, r3, r2
	umull	r4, r8, r9, r2
	adcs	r10, r10, r4
	ldr	r4, [sp, #24]           @ 4-byte Reload
	adcs	r8, r8, r4
	ldr	r4, [sp, #28]           @ 4-byte Reload
	adc	r4, r4, #0
	str	r4, [sp, #24]           @ 4-byte Spill
	umull	r2, r4, r3, r3
	str	r4, [sp, #28]           @ 4-byte Spill
	adds	r4, r7, r6
	str	r4, [sp, #16]           @ 4-byte Spill
	adcs	r5, r2, r5
	umull	r2, r4, r12, r3
	str	r4, [sp, #12]           @ 4-byte Spill
	adcs	r4, r2, r10
	umull	r2, r6, r9, r3
	adcs	r2, r2, r8
	umull	r7, r8, lr, r3
	ldr	r3, [sp, #24]           @ 4-byte Reload
	adcs	r7, r7, r3
	mov	r3, #0
	adc	r3, r3, #0
	adds	r5, r5, r11
	str	r5, [sp, #24]           @ 4-byte Spill
	ldr	r5, [sp, #28]           @ 4-byte Reload
	adcs	r4, r4, r5
	str	r4, [sp, #20]           @ 4-byte Spill
	ldr	r4, [sp, #16]           @ 4-byte Reload
	str	r4, [r0, #4]
	ldr	r4, [sp, #12]           @ 4-byte Reload
	adcs	r2, r2, r4
	str	r2, [sp, #12]           @ 4-byte Spill
	adcs	r2, r7, r6
	str	r2, [sp, #8]            @ 4-byte Spill
	adc	r2, r3, r8
	str	r2, [sp, #4]            @ 4-byte Spill
	umull	r11, r2, lr, r12
	umull	lr, r10, r12, r12
	str	r2, [sp, #28]           @ 4-byte Spill
	ldm	r1, {r4, r6}
	ldr	r2, [r1, #12]
	ldr	r7, [sp, #24]           @ 4-byte Reload
	umull	r8, r3, r2, r12
	str	r3, [sp, #16]           @ 4-byte Spill
	umull	r5, r3, r6, r12
	str	r3, [sp]                @ 4-byte Spill
	umull	r3, r9, r4, r12
	adds	r3, r3, r7
	str	r3, [sp, #24]           @ 4-byte Spill
	ldr	r3, [sp, #20]           @ 4-byte Reload
	adcs	r5, r5, r3
	ldr	r3, [sp, #12]           @ 4-byte Reload
	adcs	r12, lr, r3
	ldr	r3, [sp, #8]            @ 4-byte Reload
	adcs	r7, r8, r3
	ldr	r3, [sp, #4]            @ 4-byte Reload
	adcs	lr, r11, r3
	mov	r3, #0
	adc	r11, r3, #0
	ldr	r3, [sp]                @ 4-byte Reload
	adds	r5, r5, r9
	adcs	r12, r12, r3
	ldr	r3, [sp, #16]           @ 4-byte Reload
	adcs	r9, r7, r10
	ldr	r7, [sp, #28]           @ 4-byte Reload
	adcs	r8, lr, r3
	adc	r11, r11, r7
	umull	r7, r3, r4, r2
	adds	r7, r7, r5
	str	r3, [sp, #20]           @ 4-byte Spill
	umull	r5, r3, r6, r2
	ldr	r6, [r1, #8]
	str	r3, [sp, #16]           @ 4-byte Spill
	adcs	r10, r5, r12
	ldr	r3, [sp, #24]           @ 4-byte Reload
	ldr	r5, [r1, #16]
	str	r7, [sp, #28]           @ 4-byte Spill
	umull	r4, lr, r6, r2
	adcs	r12, r4, r9
	ldr	r4, [sp, #20]           @ 4-byte Reload
	umull	r7, r9, r2, r2
	str	r3, [r0, #8]
	adcs	r7, r7, r8
	umull	r3, r8, r5, r2
	adcs	r2, r3, r11
	mov	r3, #0
	adc	r3, r3, #0
	adds	r11, r10, r4
	ldr	r4, [sp, #16]           @ 4-byte Reload
	adcs	r4, r12, r4
	adcs	r10, r7, lr
	adcs	r12, r2, r9
	ldr	r2, [sp, #28]           @ 4-byte Reload
	adc	r8, r3, r8
	ldr	r3, [r1]
	str	r2, [r0, #12]
	ldr	r2, [r1, #4]
	ldr	r1, [r1, #12]
	umull	r7, r9, r3, r5
	adds	lr, r7, r11
	str	lr, [r0, #16]
	umull	r7, r11, r2, r5
	adcs	r2, r7, r4
	umull	r4, r7, r6, r5
	adcs	r4, r4, r10
	umull	r6, r10, r1, r5
	adcs	r1, r6, r12
	umull	r6, r3, r5, r5
	mov	r5, #0
	adcs	r6, r6, r8
	adc	r5, r5, #0
	adds	r2, r2, r9
	adcs	r4, r4, r11
	str	r2, [r0, #20]
	adcs	r1, r1, r7
	str	r4, [r0, #24]
	adcs	r7, r6, r10
	str	r1, [r0, #28]
	adc	r3, r5, r3
	str	r7, [r0, #32]
	str	r3, [r0, #36]
	add	sp, sp, #32
	pop	{r4, r5, r6, r7, r8, r9, r10, r11, lr}
	mov	pc, lr
.Lfunc_end67:
	.size	mcl_fpDbl_sqrPre5L, .Lfunc_end67-mcl_fpDbl_sqrPre5L
	.cantunwind
	.fnend

	.globl	mcl_fp_mont5L
	.align	2
	.type	mcl_fp_mont5L,%function
mcl_fp_mont5L:                          @ @mcl_fp_mont5L
	.fnstart
@ BB#0:
	.save	{r4, r5, r6, r7, r8, r9, r10, r11, lr}
	push	{r4, r5, r6, r7, r8, r9, r10, r11, lr}
	.pad	#100
	sub	sp, sp, #100
	str	r0, [sp, #52]           @ 4-byte Spill
	mov	r0, r2
	str	r2, [sp, #48]           @ 4-byte Spill
	ldm	r0, {r2, r8}
	ldr	r7, [r0, #8]
	ldr	r0, [r0, #12]
	ldr	r6, [r3, #-4]
	ldr	r5, [r3, #8]
	ldr	r9, [r3]
	ldr	r11, [r1, #8]
	ldr	r12, [r1, #12]
	str	r0, [sp, #44]           @ 4-byte Spill
	ldr	r0, [r1]
	str	r7, [sp, #40]           @ 4-byte Spill
	ldr	r7, [r1, #4]
	ldr	r1, [r1, #16]
	str	r6, [sp, #84]           @ 4-byte Spill
	str	r5, [sp, #88]           @ 4-byte Spill
	str	r9, [sp, #80]           @ 4-byte Spill
	str	r11, [sp, #60]          @ 4-byte Spill
	str	r12, [sp, #56]          @ 4-byte Spill
	umull	r4, lr, r0, r2
	str	r0, [sp, #72]           @ 4-byte Spill
	str	r7, [sp, #96]           @ 4-byte Spill
	ldr	r7, [r3, #4]
	str	r1, [sp, #64]           @ 4-byte Spill
	mul	r0, r4, r6
	str	r4, [sp, #36]           @ 4-byte Spill
	umull	r6, r4, r0, r5
	str	r4, [sp, #28]           @ 4-byte Spill
	umull	r4, r5, r0, r9
	mov	r10, r6
	mov	r9, r5
	str	r4, [sp, #32]           @ 4-byte Spill
	str	r7, [sp, #76]           @ 4-byte Spill
	str	r5, [sp, #12]           @ 4-byte Spill
	mov	r4, r7
	umlal	r9, r10, r0, r7
	umull	r7, r5, r1, r2
	str	r7, [sp, #68]           @ 4-byte Spill
	ldr	r7, [sp, #96]           @ 4-byte Reload
	str	r5, [sp, #92]           @ 4-byte Spill
	umull	r5, r1, r12, r2
	str	r1, [sp, #20]           @ 4-byte Spill
	str	r5, [sp, #24]           @ 4-byte Spill
	umull	r12, r1, r11, r2
	umull	r11, r5, r7, r2
	adds	r7, lr, r11
	adcs	r5, r5, r12
	ldr	r5, [sp, #24]           @ 4-byte Reload
	adcs	r1, r1, r5
	ldr	r5, [sp, #20]           @ 4-byte Reload
	str	r1, [sp, #24]           @ 4-byte Spill
	ldr	r1, [sp, #68]           @ 4-byte Reload
	adcs	r1, r5, r1
	str	r1, [sp, #20]           @ 4-byte Spill
	ldr	r1, [sp, #92]           @ 4-byte Reload
	adc	r1, r1, #0
	str	r1, [sp, #16]           @ 4-byte Spill
	ldr	r1, [r3, #16]
	str	r1, [sp, #68]           @ 4-byte Spill
	umull	r7, r11, r0, r1
	ldr	r1, [r3, #12]
	umull	r3, r5, r0, r4
	ldr	r4, [sp, #12]           @ 4-byte Reload
	adds	r3, r4, r3
	str	r1, [sp, #92]           @ 4-byte Spill
	umull	r3, r4, r0, r1
	adcs	r0, r5, r6
	mov	r1, #0
	ldr	r0, [sp, #28]           @ 4-byte Reload
	adcs	r0, r0, r3
	adcs	r3, r4, r7
	ldr	r7, [sp, #96]           @ 4-byte Reload
	ldr	r4, [sp, #32]           @ 4-byte Reload
	adc	r5, r11, #0
	umlal	lr, r12, r7, r2
	ldr	r2, [sp, #36]           @ 4-byte Reload
	adds	r2, r4, r2
	adcs	r2, r9, lr
	ldr	r9, [sp, #64]           @ 4-byte Reload
	str	r2, [sp, #36]           @ 4-byte Spill
	adcs	r2, r10, r12
	ldr	r10, [sp, #72]          @ 4-byte Reload
	str	r2, [sp, #32]           @ 4-byte Spill
	ldr	r2, [sp, #24]           @ 4-byte Reload
	adcs	r0, r0, r2
	str	r0, [sp, #28]           @ 4-byte Spill
	ldr	r0, [sp, #20]           @ 4-byte Reload
	adcs	r0, r3, r0
	str	r0, [sp, #24]           @ 4-byte Spill
	ldr	r0, [sp, #16]           @ 4-byte Reload
	adcs	r0, r5, r0
	umull	r5, lr, r8, r9
	str	r0, [sp, #20]           @ 4-byte Spill
	adc	r0, r1, #0
	umull	r6, r1, r8, r7
	str	r0, [sp, #16]           @ 4-byte Spill
	ldr	r0, [sp, #56]           @ 4-byte Reload
	umull	r12, r4, r8, r0
	ldr	r0, [sp, #60]           @ 4-byte Reload
	umull	r3, r2, r8, r0
	umull	r11, r0, r8, r10
	ldr	r10, [sp, #68]          @ 4-byte Reload
	adds	r6, r0, r6
	adcs	r1, r1, r3
	umlal	r0, r3, r8, r7
	ldr	r7, [sp, #36]           @ 4-byte Reload
	adcs	r1, r2, r12
	adcs	r2, r4, r5
	adc	r6, lr, #0
	adds	r8, r7, r11
	ldr	r7, [sp, #32]           @ 4-byte Reload
	adcs	r11, r7, r0
	ldr	r0, [sp, #28]           @ 4-byte Reload
	ldr	r7, [sp, #92]           @ 4-byte Reload
	adcs	r0, r0, r3
	str	r0, [sp, #36]           @ 4-byte Spill
	ldr	r0, [sp, #24]           @ 4-byte Reload
	adcs	r0, r0, r1
	str	r0, [sp, #32]           @ 4-byte Spill
	ldr	r0, [sp, #20]           @ 4-byte Reload
	adcs	r0, r0, r2
	str	r0, [sp, #28]           @ 4-byte Spill
	ldr	r0, [sp, #16]           @ 4-byte Reload
	adcs	r0, r0, r6
	str	r0, [sp, #24]           @ 4-byte Spill
	mov	r0, #0
	adc	r0, r0, #0
	str	r0, [sp, #20]           @ 4-byte Spill
	ldr	r0, [sp, #84]           @ 4-byte Reload
	mul	r4, r8, r0
	ldr	r0, [sp, #88]           @ 4-byte Reload
	umull	r6, r1, r4, r0
	ldr	r0, [sp, #80]           @ 4-byte Reload
	str	r1, [sp, #12]           @ 4-byte Spill
	umull	r1, r5, r4, r0
	mov	r0, r6
	str	r1, [sp, #16]           @ 4-byte Spill
	ldr	r1, [sp, #76]           @ 4-byte Reload
	mov	r3, r5
	umull	r12, lr, r4, r1
	umlal	r3, r0, r4, r1
	umull	r1, r2, r4, r7
	ldr	r7, [sp, #12]           @ 4-byte Reload
	adds	r5, r5, r12
	adcs	r6, lr, r6
	umull	r5, r12, r4, r10
	adcs	r1, r7, r1
	ldr	r7, [sp, #16]           @ 4-byte Reload
	adcs	r2, r2, r5
	adc	r6, r12, #0
	adds	r7, r7, r8
	ldr	r8, [sp, #60]           @ 4-byte Reload
	adcs	r3, r3, r11
	ldr	r11, [sp, #72]          @ 4-byte Reload
	str	r3, [sp, #16]           @ 4-byte Spill
	ldr	r3, [sp, #36]           @ 4-byte Reload
	adcs	r0, r0, r3
	str	r0, [sp, #36]           @ 4-byte Spill
	ldr	r0, [sp, #32]           @ 4-byte Reload
	adcs	r0, r1, r0
	str	r0, [sp, #32]           @ 4-byte Spill
	ldr	r0, [sp, #28]           @ 4-byte Reload
	adcs	r0, r2, r0
	str	r0, [sp, #28]           @ 4-byte Spill
	ldr	r0, [sp, #24]           @ 4-byte Reload
	adcs	r0, r6, r0
	str	r0, [sp, #24]           @ 4-byte Spill
	ldr	r0, [sp, #20]           @ 4-byte Reload
	adc	r0, r0, #0
	str	r0, [sp, #20]           @ 4-byte Spill
	ldr	r0, [sp, #40]           @ 4-byte Reload
	umull	r2, r1, r0, r9
	ldr	r9, [sp, #56]           @ 4-byte Reload
	umull	r3, r12, r0, r8
	str	r1, [sp, #12]           @ 4-byte Spill
	ldr	r1, [sp, #96]           @ 4-byte Reload
	str	r2, [sp, #4]            @ 4-byte Spill
	mov	r2, r0
	umull	r4, r5, r0, r9
	umull	r6, r7, r0, r1
	umull	lr, r0, r2, r11
	adds	r6, r0, r6
	str	lr, [sp, #8]            @ 4-byte Spill
	adcs	r6, r7, r3
	ldr	r7, [sp, #4]            @ 4-byte Reload
	umlal	r0, r3, r2, r1
	ldr	r1, [sp, #16]           @ 4-byte Reload
	ldr	r2, [sp, #8]            @ 4-byte Reload
	adcs	r12, r12, r4
	adcs	r4, r5, r7
	ldr	r7, [sp, #12]           @ 4-byte Reload
	adc	r7, r7, #0
	adds	r2, r1, r2
	ldr	r1, [sp, #36]           @ 4-byte Reload
	str	r2, [sp]                @ 4-byte Spill
	adcs	r0, r1, r0
	str	r0, [sp, #40]           @ 4-byte Spill
	ldr	r0, [sp, #32]           @ 4-byte Reload
	adcs	r0, r0, r3
	str	r0, [sp, #36]           @ 4-byte Spill
	ldr	r0, [sp, #28]           @ 4-byte Reload
	adcs	r0, r0, r12
	str	r0, [sp, #32]           @ 4-byte Spill
	ldr	r0, [sp, #24]           @ 4-byte Reload
	adcs	r0, r0, r4
	str	r0, [sp, #28]           @ 4-byte Spill
	ldr	r0, [sp, #20]           @ 4-byte Reload
	adcs	r0, r0, r7
	str	r0, [sp, #24]           @ 4-byte Spill
	mov	r0, #0
	adc	r0, r0, #0
	str	r0, [sp, #20]           @ 4-byte Spill
	ldr	r0, [sp, #84]           @ 4-byte Reload
	mul	r4, r2, r0
	ldr	r0, [sp, #88]           @ 4-byte Reload
	umull	r5, r1, r4, r0
	ldr	r0, [sp, #80]           @ 4-byte Reload
	str	r1, [sp, #12]           @ 4-byte Spill
	mov	r2, r5
	umull	r1, r7, r4, r0
	ldr	r0, [sp, #76]           @ 4-byte Reload
	str	r1, [sp, #16]           @ 4-byte Spill
	umull	r6, r1, r4, r10
	mov	r3, r7
	str	r1, [sp, #8]            @ 4-byte Spill
	ldr	r1, [sp, #92]           @ 4-byte Reload
	str	r6, [sp, #4]            @ 4-byte Spill
	umlal	r3, r2, r4, r0
	umull	r12, lr, r4, r1
	umull	r10, r1, r4, r0
	ldr	r0, [sp, #12]           @ 4-byte Reload
	adds	r4, r7, r10
	adcs	r1, r1, r5
	ldr	r4, [sp, #64]           @ 4-byte Reload
	ldr	r1, [sp]                @ 4-byte Reload
	adcs	r10, r0, r12
	ldr	r0, [sp, #4]            @ 4-byte Reload
	adcs	r12, lr, r0
	ldr	r0, [sp, #8]            @ 4-byte Reload
	adc	lr, r0, #0
	ldr	r0, [sp, #16]           @ 4-byte Reload
	adds	r6, r0, r1
	ldr	r0, [sp, #44]           @ 4-byte Reload
	umull	r5, r1, r0, r4
	mov	r6, r0
	str	r1, [sp, #16]           @ 4-byte Spill
	umull	r4, r1, r0, r9
	str	r5, [sp, #8]            @ 4-byte Spill
	umull	r5, r9, r0, r8
	str	r1, [sp, #4]            @ 4-byte Spill
	ldr	r1, [sp, #96]           @ 4-byte Reload
	str	r4, [sp]                @ 4-byte Spill
	umull	r4, r8, r0, r1
	umull	r7, r0, r6, r11
	str	r7, [sp, #12]           @ 4-byte Spill
	ldr	r7, [sp, #40]           @ 4-byte Reload
	adcs	r11, r3, r7
	ldr	r3, [sp, #36]           @ 4-byte Reload
	adcs	r2, r2, r3
	ldr	r3, [sp, #32]           @ 4-byte Reload
	str	r2, [sp, #40]           @ 4-byte Spill
	adcs	r10, r10, r3
	ldr	r3, [sp, #28]           @ 4-byte Reload
	adcs	r12, r12, r3
	ldr	r3, [sp, #24]           @ 4-byte Reload
	adcs	r7, lr, r3
	ldr	r3, [sp, #20]           @ 4-byte Reload
	adc	r2, r3, #0
	adds	r4, r0, r4
	ldr	r3, [sp, #4]            @ 4-byte Reload
	str	r2, [sp, #32]           @ 4-byte Spill
	ldr	r2, [sp]                @ 4-byte Reload
	adcs	r4, r8, r5
	umlal	r0, r5, r6, r1
	ldr	r1, [sp, #12]           @ 4-byte Reload
	adcs	r4, r9, r2
	ldr	r2, [sp, #8]            @ 4-byte Reload
	adcs	r3, r3, r2
	ldr	r2, [sp, #16]           @ 4-byte Reload
	adc	r8, r2, #0
	adds	lr, r11, r1
	ldr	r1, [sp, #40]           @ 4-byte Reload
	adcs	r0, r1, r0
	ldr	r1, [sp, #76]           @ 4-byte Reload
	adcs	r9, r10, r5
	str	r0, [sp, #44]           @ 4-byte Spill
	ldr	r10, [sp, #92]          @ 4-byte Reload
	adcs	r0, r12, r4
	str	r0, [sp, #40]           @ 4-byte Spill
	adcs	r0, r7, r3
	str	r0, [sp, #36]           @ 4-byte Spill
	ldr	r0, [sp, #32]           @ 4-byte Reload
	adcs	r0, r0, r8
	str	r0, [sp, #32]           @ 4-byte Spill
	mov	r0, #0
	adc	r0, r0, #0
	str	r0, [sp, #28]           @ 4-byte Spill
	ldr	r0, [sp, #84]           @ 4-byte Reload
	mul	r4, lr, r0
	ldr	r0, [sp, #88]           @ 4-byte Reload
	umull	r12, r3, r4, r1
	umull	r7, r11, r4, r0
	ldr	r0, [sp, #80]           @ 4-byte Reload
	umull	r8, r6, r4, r0
	mov	r0, r7
	mov	r5, r6
	adds	r6, r6, r12
	umlal	r5, r0, r4, r1
	ldr	r1, [sp, #68]           @ 4-byte Reload
	adcs	r3, r3, r7
	umull	r6, r12, r4, r1
	umull	r1, r2, r4, r10
	adcs	r1, r11, r1
	adcs	r2, r2, r6
	adc	r3, r12, #0
	adds	r7, r8, lr
	ldr	r7, [sp, #44]           @ 4-byte Reload
	adcs	r7, r5, r7
	adcs	r0, r0, r9
	ldr	r9, [sp, #72]           @ 4-byte Reload
	str	r7, [sp, #44]           @ 4-byte Spill
	str	r0, [sp, #24]           @ 4-byte Spill
	ldr	r0, [sp, #40]           @ 4-byte Reload
	adcs	r0, r1, r0
	str	r0, [sp, #40]           @ 4-byte Spill
	ldr	r0, [sp, #36]           @ 4-byte Reload
	adcs	r0, r2, r0
	ldr	r2, [sp, #96]           @ 4-byte Reload
	str	r0, [sp, #36]           @ 4-byte Spill
	ldr	r0, [sp, #32]           @ 4-byte Reload
	adcs	r0, r3, r0
	str	r0, [sp, #32]           @ 4-byte Spill
	ldr	r0, [sp, #28]           @ 4-byte Reload
	adc	r0, r0, #0
	str	r0, [sp, #28]           @ 4-byte Spill
	ldr	r0, [sp, #48]           @ 4-byte Reload
	ldr	r5, [r0, #16]
	ldr	r0, [sp, #64]           @ 4-byte Reload
	umull	r4, r8, r5, r0
	ldr	r0, [sp, #56]           @ 4-byte Reload
	umull	r7, r1, r5, r2
	umull	r12, lr, r5, r0
	ldr	r0, [sp, #60]           @ 4-byte Reload
	umull	r6, r3, r5, r0
	umull	r11, r0, r5, r9
	ldr	r9, [sp, #76]           @ 4-byte Reload
	adds	r7, r0, r7
	adcs	r1, r1, r6
	umlal	r0, r6, r5, r2
	ldr	r2, [sp, #44]           @ 4-byte Reload
	adcs	r1, r3, r12
	ldr	r12, [sp, #80]          @ 4-byte Reload
	adcs	r4, lr, r4
	ldr	lr, [sp, #88]           @ 4-byte Reload
	adc	r3, r8, #0
	adds	r7, r2, r11
	ldr	r2, [sp, #24]           @ 4-byte Reload
	adcs	r0, r2, r0
	ldr	r2, [sp, #68]           @ 4-byte Reload
	str	r0, [sp, #96]           @ 4-byte Spill
	ldr	r0, [sp, #40]           @ 4-byte Reload
	adcs	r11, r0, r6
	ldr	r0, [sp, #36]           @ 4-byte Reload
	adcs	r0, r0, r1
	str	r0, [sp, #72]           @ 4-byte Spill
	ldr	r0, [sp, #32]           @ 4-byte Reload
	adcs	r0, r0, r4
	str	r0, [sp, #64]           @ 4-byte Spill
	ldr	r0, [sp, #28]           @ 4-byte Reload
	adcs	r0, r0, r3
	str	r0, [sp, #60]           @ 4-byte Spill
	mov	r0, #0
	adc	r0, r0, #0
	str	r0, [sp, #56]           @ 4-byte Spill
	ldr	r0, [sp, #84]           @ 4-byte Reload
	mul	r4, r7, r0
	umull	r0, r1, r4, r9
	umull	r8, r3, r4, r12
	adds	r0, r3, r0
	umull	r5, r0, r4, lr
	adcs	r1, r1, r5
	umlal	r3, r5, r4, r9
	umull	r1, r6, r4, r10
	adcs	r10, r0, r1
	umull	r1, r0, r4, r2
	mov	r4, r9
	adcs	r1, r6, r1
	ldr	r6, [sp, #96]           @ 4-byte Reload
	adc	r0, r0, #0
	adds	r7, r8, r7
	adcs	r3, r3, r6
	adcs	r7, r5, r11
	ldr	r5, [sp, #72]           @ 4-byte Reload
	adcs	r11, r10, r5
	ldr	r5, [sp, #64]           @ 4-byte Reload
	adcs	r8, r1, r5
	ldr	r1, [sp, #60]           @ 4-byte Reload
	adcs	r10, r0, r1
	ldr	r0, [sp, #56]           @ 4-byte Reload
	ldr	r1, [sp, #92]           @ 4-byte Reload
	adc	r9, r0, #0
	subs	r5, r3, r12
	sbcs	r4, r7, r4
	sbcs	r0, r11, lr
	sbcs	r6, r8, r1
	sbcs	r1, r10, r2
	sbc	r2, r9, #0
	ands	r2, r2, #1
	movne	r5, r3
	ldr	r3, [sp, #52]           @ 4-byte Reload
	movne	r4, r7
	movne	r0, r11
	cmp	r2, #0
	movne	r6, r8
	movne	r1, r10
	str	r5, [r3]
	str	r4, [r3, #4]
	str	r0, [r3, #8]
	str	r6, [r3, #12]
	str	r1, [r3, #16]
	add	sp, sp, #100
	pop	{r4, r5, r6, r7, r8, r9, r10, r11, lr}
	mov	pc, lr
.Lfunc_end68:
	.size	mcl_fp_mont5L, .Lfunc_end68-mcl_fp_mont5L
	.cantunwind
	.fnend

	.globl	mcl_fp_montNF5L
	.align	2
	.type	mcl_fp_montNF5L,%function
mcl_fp_montNF5L:                        @ @mcl_fp_montNF5L
	.fnstart
@ BB#0:
	.save	{r4, r5, r6, r7, r8, r9, r10, r11, lr}
	push	{r4, r5, r6, r7, r8, r9, r10, r11, lr}
	.pad	#76
	sub	sp, sp, #76
	str	r2, [sp, #24]           @ 4-byte Spill
	str	r0, [sp, #28]           @ 4-byte Spill
	ldm	r2, {r4, r9, r10}
	ldr	r6, [r1, #4]
	ldr	r0, [r2, #12]
	ldr	r7, [r1]
	ldr	r5, [r1, #8]
	ldr	lr, [r3, #8]
	str	r0, [sp, #20]           @ 4-byte Spill
	ldr	r0, [r1, #12]
	str	r6, [sp, #32]           @ 4-byte Spill
	umull	r2, r8, r6, r4
	mov	r11, r6
	umull	r6, r12, r7, r4
	str	r7, [sp, #56]           @ 4-byte Spill
	str	r5, [sp, #48]           @ 4-byte Spill
	str	lr, [sp, #36]           @ 4-byte Spill
	adds	r7, r12, r2
	umull	r2, r7, r5, r4
	adcs	r5, r8, r2
	umlal	r12, r2, r11, r4
	umull	r5, r8, r0, r4
	str	r0, [sp, #68]           @ 4-byte Spill
	adcs	r0, r7, r5
	ldr	r5, [r3, #4]
	str	r0, [sp, #44]           @ 4-byte Spill
	ldr	r0, [r1, #16]
	str	r5, [sp, #60]           @ 4-byte Spill
	umull	r1, r7, r0, r4
	str	r0, [sp, #64]           @ 4-byte Spill
	adcs	r0, r8, r1
	ldr	r1, [r3]
	str	r0, [sp, #16]           @ 4-byte Spill
	adc	r0, r7, #0
	ldr	r7, [r3, #-4]
	str	r0, [sp, #12]           @ 4-byte Spill
	str	r1, [sp, #40]           @ 4-byte Spill
	mul	r0, r6, r7
	str	r7, [sp, #72]           @ 4-byte Spill
	umull	r8, r7, r0, r1
	ldr	r1, [r3, #12]
	ldr	r3, [r3, #16]
	adds	r6, r8, r6
	umull	r4, r8, r0, r5
	str	r7, [sp, #8]            @ 4-byte Spill
	umull	r5, r7, r0, lr
	ldr	lr, [sp, #64]           @ 4-byte Reload
	adcs	r6, r4, r12
	adcs	r5, r5, r2
	str	r1, [sp, #52]           @ 4-byte Spill
	umull	r2, r4, r0, r1
	ldr	r1, [sp, #44]           @ 4-byte Reload
	str	r3, [sp, #44]           @ 4-byte Spill
	adcs	r2, r2, r1
	umull	r12, r1, r0, r3
	ldr	r0, [sp, #16]           @ 4-byte Reload
	ldr	r3, [sp, #12]           @ 4-byte Reload
	adcs	r0, r12, r0
	adc	r12, r3, #0
	ldr	r3, [sp, #8]            @ 4-byte Reload
	adds	r6, r6, r3
	adcs	r3, r5, r8
	ldr	r8, [sp, #56]           @ 4-byte Reload
	adcs	r2, r2, r7
	str	r3, [sp, #16]           @ 4-byte Spill
	adcs	r0, r0, r4
	umull	r7, r4, r9, r11
	str	r2, [sp, #12]           @ 4-byte Spill
	str	r0, [sp, #8]            @ 4-byte Spill
	adc	r0, r12, r1
	ldr	r12, [sp, #68]          @ 4-byte Reload
	str	r0, [sp, #4]            @ 4-byte Spill
	ldr	r0, [sp, #48]           @ 4-byte Reload
	umull	r5, r1, r9, r8
	adds	r7, r1, r7
	umull	r2, r7, r9, r0
	adcs	r4, r4, r2
	umlal	r1, r2, r9, r11
	ldr	r11, [sp, #44]          @ 4-byte Reload
	umull	r4, r0, r9, r12
	adcs	r4, r7, r4
	umull	r7, r3, r9, lr
	ldr	r9, [sp, #36]           @ 4-byte Reload
	adcs	r0, r0, r7
	adc	r3, r3, #0
	adds	r7, r5, r6
	ldr	r5, [sp, #16]           @ 4-byte Reload
	adcs	r1, r1, r5
	ldr	r5, [sp, #12]           @ 4-byte Reload
	adcs	r2, r2, r5
	ldr	r5, [sp, #8]            @ 4-byte Reload
	adcs	r6, r4, r5
	ldr	r4, [sp, #4]            @ 4-byte Reload
	adcs	r0, r0, r4
	str	r0, [sp, #16]           @ 4-byte Spill
	adc	r0, r3, #0
	str	r0, [sp, #12]           @ 4-byte Spill
	ldr	r0, [sp, #72]           @ 4-byte Reload
	mul	r5, r7, r0
	ldr	r0, [sp, #40]           @ 4-byte Reload
	umull	r4, r3, r5, r0
	ldr	r0, [sp, #60]           @ 4-byte Reload
	adds	r7, r4, r7
	ldr	r4, [sp, #52]           @ 4-byte Reload
	str	r3, [sp, #8]            @ 4-byte Spill
	umull	r7, r3, r5, r0
	adcs	r1, r7, r1
	umull	r7, r0, r5, r9
	str	r3, [sp, #4]            @ 4-byte Spill
	ldr	r3, [sp, #8]            @ 4-byte Reload
	str	r0, [sp]                @ 4-byte Spill
	adcs	r2, r7, r2
	umull	r7, r0, r5, r4
	adcs	r6, r7, r6
	umull	r7, r4, r5, r11
	ldr	r5, [sp, #16]           @ 4-byte Reload
	adcs	r7, r7, r5
	ldr	r5, [sp, #12]           @ 4-byte Reload
	adc	r5, r5, #0
	adds	r1, r1, r3
	ldr	r3, [sp, #48]           @ 4-byte Reload
	str	r1, [sp, #16]           @ 4-byte Spill
	ldr	r1, [sp, #4]            @ 4-byte Reload
	adcs	r1, r2, r1
	str	r1, [sp, #12]           @ 4-byte Spill
	ldr	r1, [sp]                @ 4-byte Reload
	adcs	r1, r6, r1
	adcs	r0, r7, r0
	ldr	r7, [sp, #32]           @ 4-byte Reload
	str	r1, [sp, #8]            @ 4-byte Spill
	adc	r11, r5, r4
	str	r0, [sp, #4]            @ 4-byte Spill
	umull	r4, r0, r10, r8
	ldr	r8, [sp, #60]           @ 4-byte Reload
	umull	r6, r5, r10, r7
	adds	r6, r0, r6
	umull	r1, r6, r10, r3
	adcs	r5, r5, r1
	umlal	r0, r1, r10, r7
	umull	r5, r2, r10, r12
	adcs	r12, r6, r5
	umull	r6, r5, r10, lr
	mov	lr, r7
	adcs	r2, r2, r6
	ldr	r6, [sp, #16]           @ 4-byte Reload
	adc	r5, r5, #0
	adds	r6, r4, r6
	ldr	r4, [sp, #12]           @ 4-byte Reload
	adcs	r0, r0, r4
	ldr	r4, [sp, #8]            @ 4-byte Reload
	adcs	r1, r1, r4
	ldr	r4, [sp, #4]            @ 4-byte Reload
	adcs	r10, r12, r4
	adcs	r2, r2, r11
	ldr	r11, [sp, #40]          @ 4-byte Reload
	str	r2, [sp, #8]            @ 4-byte Spill
	adc	r2, r5, #0
	str	r2, [sp, #16]           @ 4-byte Spill
	ldr	r2, [sp, #72]           @ 4-byte Reload
	mul	r7, r6, r2
	umull	r4, r2, r7, r11
	adds	r6, r4, r6
	str	r2, [sp, #12]           @ 4-byte Spill
	umull	r6, r2, r7, r8
	str	r2, [sp, #4]            @ 4-byte Spill
	adcs	r0, r6, r0
	umull	r6, r2, r7, r9
	ldr	r9, [sp, #52]           @ 4-byte Reload
	adcs	r1, r6, r1
	str	r2, [sp]                @ 4-byte Spill
	ldr	r2, [sp, #8]            @ 4-byte Reload
	umull	r6, r12, r7, r9
	adcs	r5, r6, r10
	ldr	r10, [sp, #44]          @ 4-byte Reload
	umull	r6, r4, r7, r10
	adcs	r7, r6, r2
	ldr	r6, [sp, #16]           @ 4-byte Reload
	ldr	r2, [sp, #12]           @ 4-byte Reload
	adc	r6, r6, #0
	adds	r0, r0, r2
	str	r0, [sp, #16]           @ 4-byte Spill
	ldr	r0, [sp, #4]            @ 4-byte Reload
	adcs	r0, r1, r0
	str	r0, [sp, #12]           @ 4-byte Spill
	ldr	r0, [sp]                @ 4-byte Reload
	adcs	r0, r5, r0
	str	r0, [sp, #8]            @ 4-byte Spill
	adcs	r0, r7, r12
	ldr	r7, [sp, #20]           @ 4-byte Reload
	str	r0, [sp, #4]            @ 4-byte Spill
	adc	r0, r6, r4
	str	r0, [sp]                @ 4-byte Spill
	ldr	r0, [sp, #56]           @ 4-byte Reload
	umull	r1, r5, r7, r3
	mov	r6, r1
	umull	r4, r2, r7, r0
	mov	r0, lr
	mov	r12, r2
	umull	r3, lr, r7, r0
	umlal	r12, r6, r7, r0
	ldr	r0, [sp, #68]           @ 4-byte Reload
	adds	r2, r2, r3
	adcs	r1, lr, r1
	umull	r1, r2, r7, r0
	ldr	r0, [sp, #64]           @ 4-byte Reload
	adcs	r1, r5, r1
	umull	r3, r5, r7, r0
	ldr	r0, [sp, #16]           @ 4-byte Reload
	adcs	r2, r2, r3
	adc	r3, r5, #0
	ldr	r5, [sp, #8]            @ 4-byte Reload
	adds	r7, r4, r0
	ldr	r0, [sp, #12]           @ 4-byte Reload
	adcs	r0, r12, r0
	adcs	r6, r6, r5
	ldr	r5, [sp, #4]            @ 4-byte Reload
	adcs	r1, r1, r5
	ldr	r5, [sp]                @ 4-byte Reload
	adcs	r2, r2, r5
	str	r2, [sp, #20]           @ 4-byte Spill
	adc	r2, r3, #0
	str	r2, [sp, #16]           @ 4-byte Spill
	ldr	r2, [sp, #72]           @ 4-byte Reload
	mul	r5, r7, r2
	ldr	r2, [sp, #36]           @ 4-byte Reload
	umull	r4, lr, r5, r11
	adds	r7, r4, r7
	umull	r7, r12, r5, r8
	adcs	r0, r7, r0
	umull	r7, r3, r5, r2
	adcs	r6, r7, r6
	umull	r7, r2, r5, r9
	adcs	r1, r7, r1
	umull	r7, r4, r5, r10
	ldr	r5, [sp, #20]           @ 4-byte Reload
	adcs	r7, r7, r5
	ldr	r5, [sp, #16]           @ 4-byte Reload
	adc	r5, r5, #0
	adds	r0, r0, lr
	str	r0, [sp, #20]           @ 4-byte Spill
	ldr	r0, [sp, #24]           @ 4-byte Reload
	adcs	r10, r6, r12
	adcs	lr, r1, r3
	adcs	r8, r7, r2
	adc	r9, r5, r4
	ldr	r4, [sp, #32]           @ 4-byte Reload
	ldr	r7, [r0, #16]
	ldr	r0, [sp, #48]           @ 4-byte Reload
	umull	r3, r11, r7, r0
	ldr	r0, [sp, #56]           @ 4-byte Reload
	mov	r5, r3
	umull	r12, r2, r7, r0
	umull	r6, r0, r7, r4
	mov	r1, r2
	adds	r2, r2, r6
	ldr	r6, [sp, #64]           @ 4-byte Reload
	adcs	r0, r0, r3
	ldr	r3, [sp, #68]           @ 4-byte Reload
	umlal	r1, r5, r7, r4
	umull	r0, r2, r7, r3
	umull	r3, r4, r7, r6
	adcs	r0, r11, r0
	adcs	r2, r2, r3
	adc	r3, r4, #0
	ldr	r4, [sp, #20]           @ 4-byte Reload
	adds	r7, r12, r4
	ldr	r12, [sp, #60]          @ 4-byte Reload
	adcs	r1, r1, r10
	adcs	r6, r5, lr
	adcs	r11, r0, r8
	ldr	r8, [sp, #40]           @ 4-byte Reload
	adcs	r0, r2, r9
	ldr	r2, [sp, #52]           @ 4-byte Reload
	str	r0, [sp, #68]           @ 4-byte Spill
	adc	r0, r3, #0
	str	r0, [sp, #64]           @ 4-byte Spill
	ldr	r0, [sp, #72]           @ 4-byte Reload
	mul	r5, r7, r0
	umull	r4, r0, r5, r8
	umull	r3, lr, r5, r12
	adds	r7, r4, r7
	ldr	r4, [sp, #36]           @ 4-byte Reload
	str	r0, [sp, #72]           @ 4-byte Spill
	adcs	r1, r3, r1
	ldr	r9, [sp, #72]           @ 4-byte Reload
	umull	r7, r0, r5, r4
	str	r0, [sp, #56]           @ 4-byte Spill
	ldr	r0, [sp, #44]           @ 4-byte Reload
	adcs	r3, r7, r6
	umull	r6, r10, r5, r2
	adcs	r7, r6, r11
	umull	r6, r11, r5, r0
	ldr	r5, [sp, #68]           @ 4-byte Reload
	adcs	r6, r6, r5
	ldr	r5, [sp, #64]           @ 4-byte Reload
	adc	r5, r5, #0
	adds	r1, r1, r9
	adcs	lr, r3, lr
	ldr	r3, [sp, #56]           @ 4-byte Reload
	adcs	r9, r7, r3
	adcs	r10, r6, r10
	adc	r11, r5, r11
	subs	r6, r1, r8
	sbcs	r5, lr, r12
	sbcs	r4, r9, r4
	sbcs	r7, r10, r2
	sbc	r3, r11, r0
	asr	r0, r3, #31
	cmp	r0, #0
	movlt	r6, r1
	ldr	r1, [sp, #28]           @ 4-byte Reload
	movlt	r5, lr
	movlt	r4, r9
	cmp	r0, #0
	movlt	r7, r10
	movlt	r3, r11
	str	r6, [r1]
	str	r5, [r1, #4]
	str	r4, [r1, #8]
	str	r7, [r1, #12]
	str	r3, [r1, #16]
	add	sp, sp, #76
	pop	{r4, r5, r6, r7, r8, r9, r10, r11, lr}
	mov	pc, lr
.Lfunc_end69:
	.size	mcl_fp_montNF5L, .Lfunc_end69-mcl_fp_montNF5L
	.cantunwind
	.fnend

	.globl	mcl_fp_montRed5L
	.align	2
	.type	mcl_fp_montRed5L,%function
mcl_fp_montRed5L:                       @ @mcl_fp_montRed5L
	.fnstart
@ BB#0:
	.save	{r4, r5, r6, r7, r8, r9, r10, r11, lr}
	push	{r4, r5, r6, r7, r8, r9, r10, r11, lr}
	.pad	#84
	sub	sp, sp, #84
	ldr	r6, [r1, #4]
	ldr	r9, [r2, #-4]
	ldr	r4, [r1]
	ldr	r8, [r2, #8]
	str	r0, [sp, #60]           @ 4-byte Spill
	ldr	r0, [r2]
	ldr	r10, [r2, #4]
	str	r6, [sp, #48]           @ 4-byte Spill
	ldr	r6, [r1, #8]
	mul	r5, r4, r9
	str	r4, [sp, #24]           @ 4-byte Spill
	str	r0, [sp, #72]           @ 4-byte Spill
	str	r9, [sp, #64]           @ 4-byte Spill
	str	r8, [sp, #68]           @ 4-byte Spill
	umull	lr, r4, r5, r8
	str	r4, [sp, #40]           @ 4-byte Spill
	umull	r4, r3, r5, r0
	mov	r12, lr
	str	r4, [sp, #44]           @ 4-byte Spill
	ldr	r4, [r2, #16]
	ldr	r2, [r2, #12]
	mov	r0, r3
	str	r6, [sp, #56]           @ 4-byte Spill
	ldr	r6, [r1, #12]
	umlal	r0, r12, r5, r10
	str	r4, [sp, #76]           @ 4-byte Spill
	str	r2, [sp, #80]           @ 4-byte Spill
	str	r6, [sp, #52]           @ 4-byte Spill
	umull	r7, r6, r5, r4
	str	r6, [sp, #28]           @ 4-byte Spill
	umull	r4, r6, r5, r2
	umull	r11, r2, r5, r10
	str	r7, [sp, #32]           @ 4-byte Spill
	adds	r3, r3, r11
	ldr	r11, [r1, #36]
	adcs	r2, r2, lr
	ldr	r3, [sp, #24]           @ 4-byte Reload
	add	lr, r1, #16
	ldr	r2, [sp, #40]           @ 4-byte Reload
	adcs	r2, r2, r4
	str	r2, [sp, #36]           @ 4-byte Spill
	ldr	r2, [sp, #32]           @ 4-byte Reload
	adcs	r2, r6, r2
	str	r2, [sp, #32]           @ 4-byte Spill
	ldr	r2, [sp, #28]           @ 4-byte Reload
	adc	r2, r2, #0
	str	r2, [sp, #28]           @ 4-byte Spill
	ldr	r2, [sp, #44]           @ 4-byte Reload
	adds	r5, r3, r2
	ldr	r2, [sp, #48]           @ 4-byte Reload
	ldr	r3, [sp, #72]           @ 4-byte Reload
	adcs	r2, r2, r0
	mul	r0, r2, r9
	str	r2, [sp, #48]           @ 4-byte Spill
	ldr	r9, [r1, #28]
	umull	r6, r2, r0, r8
	str	r2, [sp, #40]           @ 4-byte Spill
	umull	r2, r4, r0, r3
	mov	r5, r6
	mov	r8, r6
	str	r2, [sp, #44]           @ 4-byte Spill
	ldr	r2, [r1, #32]
	mov	r7, r4
	umlal	r7, r5, r0, r10
	str	r2, [sp, #24]           @ 4-byte Spill
	ldm	lr, {r1, r2, lr}
	ldr	r6, [sp, #56]           @ 4-byte Reload
	adcs	r3, r6, r12
	ldr	r6, [sp, #52]           @ 4-byte Reload
	str	r3, [sp, #12]           @ 4-byte Spill
	ldr	r3, [sp, #36]           @ 4-byte Reload
	adcs	r6, r6, r3
	ldr	r3, [sp, #32]           @ 4-byte Reload
	str	r6, [sp, #56]           @ 4-byte Spill
	adcs	r1, r1, r3
	str	r1, [sp, #52]           @ 4-byte Spill
	ldr	r1, [sp, #28]           @ 4-byte Reload
	adcs	r1, r2, r1
	str	r1, [sp, #36]           @ 4-byte Spill
	adcs	r1, lr, #0
	ldr	lr, [sp, #76]           @ 4-byte Reload
	str	r1, [sp, #32]           @ 4-byte Spill
	adcs	r1, r9, #0
	str	r1, [sp, #28]           @ 4-byte Spill
	ldr	r1, [sp, #24]           @ 4-byte Reload
	adcs	r1, r1, #0
	str	r1, [sp, #24]           @ 4-byte Spill
	adcs	r1, r11, #0
	umull	r6, r11, r0, lr
	str	r1, [sp, #20]           @ 4-byte Spill
	mov	r1, #0
	adc	r1, r1, #0
	str	r1, [sp, #16]           @ 4-byte Spill
	ldr	r1, [sp, #80]           @ 4-byte Reload
	umull	r2, r3, r0, r1
	umull	r9, r1, r0, r10
	adds	r0, r4, r9
	adcs	r0, r1, r8
	ldr	r1, [sp, #44]           @ 4-byte Reload
	ldr	r0, [sp, #40]           @ 4-byte Reload
	adcs	r9, r0, r2
	ldr	r2, [sp, #64]           @ 4-byte Reload
	adcs	r0, r3, r6
	ldr	r6, [sp, #72]           @ 4-byte Reload
	str	r0, [sp, #40]           @ 4-byte Spill
	ldr	r0, [sp, #48]           @ 4-byte Reload
	adc	r11, r11, #0
	adds	r3, r1, r0
	ldr	r0, [sp, #12]           @ 4-byte Reload
	ldr	r1, [sp, #68]           @ 4-byte Reload
	adcs	r0, r7, r0
	mul	r7, r0, r2
	str	r0, [sp, #12]           @ 4-byte Spill
	umull	r8, r0, r7, r1
	str	r0, [sp, #4]            @ 4-byte Spill
	umull	r3, r0, r7, r6
	mov	r12, r8
	str	r3, [sp, #8]            @ 4-byte Spill
	ldr	r3, [sp, #56]           @ 4-byte Reload
	mov	r4, r0
	umlal	r4, r12, r7, r10
	adcs	r3, r5, r3
	ldr	r5, [sp, #40]           @ 4-byte Reload
	str	r3, [sp]                @ 4-byte Spill
	ldr	r3, [sp, #52]           @ 4-byte Reload
	adcs	r3, r9, r3
	str	r3, [sp, #56]           @ 4-byte Spill
	ldr	r3, [sp, #36]           @ 4-byte Reload
	adcs	r3, r5, r3
	str	r3, [sp, #52]           @ 4-byte Spill
	ldr	r3, [sp, #32]           @ 4-byte Reload
	adcs	r3, r11, r3
	str	r3, [sp, #48]           @ 4-byte Spill
	ldr	r3, [sp, #28]           @ 4-byte Reload
	adcs	r3, r3, #0
	str	r3, [sp, #44]           @ 4-byte Spill
	ldr	r3, [sp, #24]           @ 4-byte Reload
	adcs	r3, r3, #0
	str	r3, [sp, #40]           @ 4-byte Spill
	ldr	r3, [sp, #20]           @ 4-byte Reload
	adcs	r3, r3, #0
	str	r3, [sp, #36]           @ 4-byte Spill
	ldr	r3, [sp, #16]           @ 4-byte Reload
	adc	r3, r3, #0
	str	r3, [sp, #32]           @ 4-byte Spill
	umull	r5, r3, r7, lr
	ldr	lr, [sp, #80]           @ 4-byte Reload
	str	r3, [sp, #28]           @ 4-byte Spill
	umull	r9, r3, r7, r10
	str	r5, [sp, #24]           @ 4-byte Spill
	adds	r0, r0, r9
	adcs	r0, r3, r8
	ldr	r3, [sp, #8]            @ 4-byte Reload
	ldr	r0, [sp, #4]            @ 4-byte Reload
	umull	r5, r11, r7, lr
	adcs	r9, r0, r5
	ldr	r0, [sp, #24]           @ 4-byte Reload
	adcs	r0, r11, r0
	str	r0, [sp, #20]           @ 4-byte Spill
	ldr	r0, [sp, #28]           @ 4-byte Reload
	adc	r8, r0, #0
	ldr	r0, [sp, #12]           @ 4-byte Reload
	adds	r3, r3, r0
	ldr	r0, [sp]                @ 4-byte Reload
	adcs	r11, r4, r0
	mul	r7, r11, r2
	ldr	r2, [sp, #20]           @ 4-byte Reload
	umull	r3, r0, r7, r1
	str	r0, [sp, #24]           @ 4-byte Spill
	umull	r1, r0, r7, r6
	mov	r5, r3
	str	r1, [sp, #28]           @ 4-byte Spill
	ldr	r1, [sp, #56]           @ 4-byte Reload
	mov	r4, r0
	umlal	r4, r5, r7, r10
	adcs	r1, r12, r1
	umull	r12, r6, r7, lr
	str	r1, [sp, #56]           @ 4-byte Spill
	ldr	r1, [sp, #52]           @ 4-byte Reload
	adcs	r1, r9, r1
	str	r1, [sp, #52]           @ 4-byte Spill
	ldr	r1, [sp, #48]           @ 4-byte Reload
	adcs	r1, r2, r1
	ldr	r2, [sp, #76]           @ 4-byte Reload
	str	r1, [sp, #48]           @ 4-byte Spill
	ldr	r1, [sp, #44]           @ 4-byte Reload
	adcs	r1, r8, r1
	str	r1, [sp, #44]           @ 4-byte Spill
	ldr	r1, [sp, #40]           @ 4-byte Reload
	adcs	r1, r1, #0
	str	r1, [sp, #40]           @ 4-byte Spill
	ldr	r1, [sp, #36]           @ 4-byte Reload
	adcs	r1, r1, #0
	str	r1, [sp, #36]           @ 4-byte Spill
	ldr	r1, [sp, #32]           @ 4-byte Reload
	adc	r1, r1, #0
	str	r1, [sp, #32]           @ 4-byte Spill
	umull	r9, r1, r7, r2
	str	r1, [sp, #20]           @ 4-byte Spill
	umull	r8, r1, r7, r10
	adds	r0, r0, r8
	ldr	r8, [sp, #72]           @ 4-byte Reload
	adcs	r0, r1, r3
	ldr	r3, [sp, #20]           @ 4-byte Reload
	ldr	r0, [sp, #24]           @ 4-byte Reload
	adcs	r0, r0, r12
	adcs	r1, r6, r9
	adc	r7, r3, #0
	ldr	r3, [sp, #28]           @ 4-byte Reload
	adds	r3, r3, r11
	ldr	r3, [sp, #56]           @ 4-byte Reload
	adcs	r12, r4, r3
	ldr	r3, [sp, #52]           @ 4-byte Reload
	adcs	r3, r5, r3
	str	r3, [sp, #56]           @ 4-byte Spill
	ldr	r3, [sp, #48]           @ 4-byte Reload
	adcs	r0, r0, r3
	str	r0, [sp, #52]           @ 4-byte Spill
	ldr	r0, [sp, #44]           @ 4-byte Reload
	adcs	r0, r1, r0
	str	r0, [sp, #48]           @ 4-byte Spill
	ldr	r0, [sp, #40]           @ 4-byte Reload
	adcs	r0, r7, r0
	ldr	r7, [sp, #68]           @ 4-byte Reload
	str	r0, [sp, #44]           @ 4-byte Spill
	ldr	r0, [sp, #36]           @ 4-byte Reload
	adcs	r0, r0, #0
	str	r0, [sp, #40]           @ 4-byte Spill
	ldr	r0, [sp, #32]           @ 4-byte Reload
	adc	r0, r0, #0
	str	r0, [sp, #36]           @ 4-byte Spill
	ldr	r0, [sp, #64]           @ 4-byte Reload
	mul	r4, r12, r0
	umull	r0, r1, r4, r10
	umull	r11, r5, r4, r8
	adds	r0, r5, r0
	umull	r6, r0, r4, r7
	adcs	r1, r1, r6
	umlal	r5, r6, r4, r10
	umull	r1, r3, r4, lr
	adcs	r9, r0, r1
	umull	r1, r0, r4, r2
	adcs	r1, r3, r1
	ldr	r3, [sp, #52]           @ 4-byte Reload
	adc	r0, r0, #0
	adds	r2, r11, r12
	ldr	r2, [sp, #56]           @ 4-byte Reload
	adcs	r2, r5, r2
	adcs	r3, r6, r3
	ldr	r6, [sp, #48]           @ 4-byte Reload
	adcs	lr, r9, r6
	ldr	r6, [sp, #44]           @ 4-byte Reload
	adcs	r9, r1, r6
	ldr	r1, [sp, #40]           @ 4-byte Reload
	adcs	r11, r0, r1
	ldr	r0, [sp, #36]           @ 4-byte Reload
	ldr	r1, [sp, #80]           @ 4-byte Reload
	adc	r12, r0, #0
	subs	r5, r2, r8
	sbcs	r4, r3, r10
	sbcs	r0, lr, r7
	sbcs	r6, r9, r1
	ldr	r1, [sp, #76]           @ 4-byte Reload
	sbcs	r1, r11, r1
	sbc	r7, r12, #0
	ands	r7, r7, #1
	movne	r5, r2
	ldr	r2, [sp, #60]           @ 4-byte Reload
	movne	r4, r3
	movne	r0, lr
	cmp	r7, #0
	movne	r6, r9
	movne	r1, r11
	str	r5, [r2]
	str	r4, [r2, #4]
	str	r0, [r2, #8]
	str	r6, [r2, #12]
	str	r1, [r2, #16]
	add	sp, sp, #84
	pop	{r4, r5, r6, r7, r8, r9, r10, r11, lr}
	mov	pc, lr
.Lfunc_end70:
	.size	mcl_fp_montRed5L, .Lfunc_end70-mcl_fp_montRed5L
	.cantunwind
	.fnend

	.globl	mcl_fp_addPre5L
	.align	2
	.type	mcl_fp_addPre5L,%function
mcl_fp_addPre5L:                        @ @mcl_fp_addPre5L
	.fnstart
@ BB#0:
	.save	{r4, r5, r6, r7, r8, lr}
	push	{r4, r5, r6, r7, r8, lr}
	ldm	r2, {r3, r12, lr}
	ldr	r4, [r2, #12]
	ldr	r8, [r2, #16]
	ldm	r1, {r5, r6, r7}
	ldr	r2, [r1, #12]
	ldr	r1, [r1, #16]
	adds	r3, r3, r5
	adcs	r6, r12, r6
	adcs	r7, lr, r7
	adcs	r2, r4, r2
	stm	r0, {r3, r6, r7}
	adcs	r1, r8, r1
	str	r2, [r0, #12]
	str	r1, [r0, #16]
	mov	r0, #0
	adc	r0, r0, #0
	pop	{r4, r5, r6, r7, r8, lr}
	mov	pc, lr
.Lfunc_end71:
	.size	mcl_fp_addPre5L, .Lfunc_end71-mcl_fp_addPre5L
	.cantunwind
	.fnend

	.globl	mcl_fp_subPre5L
	.align	2
	.type	mcl_fp_subPre5L,%function
mcl_fp_subPre5L:                        @ @mcl_fp_subPre5L
	.fnstart
@ BB#0:
	.save	{r4, r5, r6, r7, r8, lr}
	push	{r4, r5, r6, r7, r8, lr}
	ldm	r2, {r3, r12, lr}
	ldr	r4, [r2, #12]
	ldr	r8, [r2, #16]
	ldm	r1, {r5, r6, r7}
	ldr	r2, [r1, #12]
	ldr	r1, [r1, #16]
	subs	r3, r5, r3
	sbcs	r6, r6, r12
	sbcs	r7, r7, lr
	sbcs	r2, r2, r4
	stm	r0, {r3, r6, r7}
	sbcs	r1, r1, r8
	str	r2, [r0, #12]
	str	r1, [r0, #16]
	mov	r0, #0
	sbc	r0, r0, #0
	and	r0, r0, #1
	pop	{r4, r5, r6, r7, r8, lr}
	mov	pc, lr
.Lfunc_end72:
	.size	mcl_fp_subPre5L, .Lfunc_end72-mcl_fp_subPre5L
	.cantunwind
	.fnend

	.globl	mcl_fp_shr1_5L
	.align	2
	.type	mcl_fp_shr1_5L,%function
mcl_fp_shr1_5L:                         @ @mcl_fp_shr1_5L
	.fnstart
@ BB#0:
	.save	{r4, lr}
	push	{r4, lr}
	ldr	r3, [r1, #4]
	ldr	r12, [r1]
	ldr	lr, [r1, #12]
	ldr	r2, [r1, #8]
	ldr	r1, [r1, #16]
	lsrs	r4, r3, #1
	lsr	r3, r3, #1
	rrx	r12, r12
	lsrs	r4, lr, #1
	orr	r3, r3, r2, lsl #31
	lsr	r4, lr, #1
	rrx	r2, r2
	str	r12, [r0]
	str	r3, [r0, #4]
	orr	r4, r4, r1, lsl #31
	lsr	r1, r1, #1
	str	r2, [r0, #8]
	str	r4, [r0, #12]
	str	r1, [r0, #16]
	pop	{r4, lr}
	mov	pc, lr
.Lfunc_end73:
	.size	mcl_fp_shr1_5L, .Lfunc_end73-mcl_fp_shr1_5L
	.cantunwind
	.fnend

	.globl	mcl_fp_add5L
	.align	2
	.type	mcl_fp_add5L,%function
mcl_fp_add5L:                           @ @mcl_fp_add5L
	.fnstart
@ BB#0:
	.save	{r4, r5, r6, r7, r8, r9, r11, lr}
	push	{r4, r5, r6, r7, r8, r9, r11, lr}
	ldm	r2, {r12, lr}
	ldr	r9, [r2, #8]
	ldr	r5, [r2, #12]
	ldr	r8, [r2, #16]
	ldm	r1, {r6, r7}
	ldr	r2, [r1, #8]
	ldr	r4, [r1, #12]
	ldr	r1, [r1, #16]
	adds	r6, r12, r6
	adcs	r7, lr, r7
	adcs	r2, r9, r2
	stm	r0, {r6, r7}
	adcs	r5, r5, r4
	mov	r4, #0
	str	r2, [r0, #8]
	adcs	r1, r8, r1
	str	r5, [r0, #12]
	str	r1, [r0, #16]
	adc	r8, r4, #0
	ldm	r3, {r4, r12, lr}
	ldr	r9, [r3, #12]
	ldr	r3, [r3, #16]
	subs	r6, r6, r4
	sbcs	r7, r7, r12
	sbcs	r2, r2, lr
	sbcs	r12, r5, r9
	sbcs	lr, r1, r3
	sbc	r1, r8, #0
	tst	r1, #1
	stmeq	r0!, {r6, r7}
	stmeq	r0, {r2, r12, lr}
	pop	{r4, r5, r6, r7, r8, r9, r11, lr}
	mov	pc, lr
.Lfunc_end74:
	.size	mcl_fp_add5L, .Lfunc_end74-mcl_fp_add5L
	.cantunwind
	.fnend

	.globl	mcl_fp_addNF5L
	.align	2
	.type	mcl_fp_addNF5L,%function
mcl_fp_addNF5L:                         @ @mcl_fp_addNF5L
	.fnstart
@ BB#0:
	.save	{r4, r5, r6, r7, r8, r9, r10, lr}
	push	{r4, r5, r6, r7, r8, r9, r10, lr}
	ldm	r1, {r12, lr}
	ldr	r9, [r1, #8]
	ldr	r5, [r1, #12]
	ldr	r8, [r1, #16]
	ldm	r2, {r6, r7}
	ldr	r1, [r2, #8]
	ldr	r4, [r2, #12]
	ldr	r2, [r2, #16]
	adds	r6, r6, r12
	adcs	r10, r7, lr
	adcs	r9, r1, r9
	adcs	lr, r4, r5
	ldr	r4, [r3]
	adc	r12, r2, r8
	ldmib	r3, {r2, r5}
	ldr	r1, [r3, #12]
	ldr	r3, [r3, #16]
	subs	r4, r6, r4
	sbcs	r2, r10, r2
	sbcs	r5, r9, r5
	sbcs	r1, lr, r1
	sbc	r3, r12, r3
	asr	r7, r3, #31
	cmp	r7, #0
	movlt	r4, r6
	movlt	r2, r10
	movlt	r5, r9
	cmp	r7, #0
	movlt	r1, lr
	movlt	r3, r12
	str	r4, [r0]
	str	r2, [r0, #4]
	str	r5, [r0, #8]
	str	r1, [r0, #12]
	str	r3, [r0, #16]
	pop	{r4, r5, r6, r7, r8, r9, r10, lr}
	mov	pc, lr
.Lfunc_end75:
	.size	mcl_fp_addNF5L, .Lfunc_end75-mcl_fp_addNF5L
	.cantunwind
	.fnend

	.globl	mcl_fp_sub5L
	.align	2
	.type	mcl_fp_sub5L,%function
mcl_fp_sub5L:                           @ @mcl_fp_sub5L
	.fnstart
@ BB#0:
	.save	{r4, r5, r6, r7, r8, r9, r11, lr}
	push	{r4, r5, r6, r7, r8, r9, r11, lr}
	ldm	r2, {r8, r12, lr}
	ldr	r9, [r2, #12]
	ldr	r6, [r2, #16]
	ldm	r1, {r2, r7}
	ldr	r4, [r1, #8]
	ldr	r5, [r1, #12]
	ldr	r1, [r1, #16]
	subs	r8, r2, r8
	sbcs	r2, r7, r12
	str	r8, [r0]
	sbcs	r12, r4, lr
	sbcs	lr, r5, r9
	sbcs	r4, r1, r6
	mov	r1, #0
	stmib	r0, {r2, r12, lr}
	sbc	r1, r1, #0
	str	r4, [r0, #16]
	tst	r1, #1
	popeq	{r4, r5, r6, r7, r8, r9, r11, lr}
	moveq	pc, lr
	ldm	r3, {r1, r5, r6, r7}
	ldr	r3, [r3, #16]
	adds	r1, r1, r8
	adcs	r2, r5, r2
	adcs	r6, r6, r12
	adcs	r7, r7, lr
	adc	r3, r3, r4
	stm	r0, {r1, r2, r6, r7}
	str	r3, [r0, #16]
	pop	{r4, r5, r6, r7, r8, r9, r11, lr}
	mov	pc, lr
.Lfunc_end76:
	.size	mcl_fp_sub5L, .Lfunc_end76-mcl_fp_sub5L
	.cantunwind
	.fnend

	.globl	mcl_fp_subNF5L
	.align	2
	.type	mcl_fp_subNF5L,%function
mcl_fp_subNF5L:                         @ @mcl_fp_subNF5L
	.fnstart
@ BB#0:
	.save	{r4, r5, r6, r7, r8, r9, r10, r11, lr}
	push	{r4, r5, r6, r7, r8, r9, r10, r11, lr}
	ldm	r2, {r12, lr}
	ldr	r9, [r2, #8]
	ldr	r5, [r2, #12]
	ldr	r8, [r2, #16]
	ldm	r1, {r6, r7}
	ldr	r2, [r1, #8]
	ldr	r4, [r1, #12]
	ldr	r1, [r1, #16]
	subs	r11, r6, r12
	sbcs	r10, r7, lr
	sbcs	lr, r2, r9
	add	r9, r3, #8
	sbcs	r12, r4, r5
	ldm	r3, {r4, r5}
	sbc	r1, r1, r8
	ldm	r9, {r2, r8, r9}
	asr	r6, r1, #31
	adds	r4, r11, r4
	adcs	r5, r10, r5
	adcs	r2, lr, r2
	adcs	r3, r12, r8
	adc	r7, r1, r9
	cmp	r6, #0
	movge	r4, r11
	movge	r5, r10
	movge	r2, lr
	cmp	r6, #0
	movge	r3, r12
	movge	r7, r1
	str	r4, [r0]
	str	r5, [r0, #4]
	str	r2, [r0, #8]
	str	r3, [r0, #12]
	str	r7, [r0, #16]
	pop	{r4, r5, r6, r7, r8, r9, r10, r11, lr}
	mov	pc, lr
.Lfunc_end77:
	.size	mcl_fp_subNF5L, .Lfunc_end77-mcl_fp_subNF5L
	.cantunwind
	.fnend

	.globl	mcl_fpDbl_add5L
	.align	2
	.type	mcl_fpDbl_add5L,%function
mcl_fpDbl_add5L:                        @ @mcl_fpDbl_add5L
	.fnstart
@ BB#0:
	.save	{r4, r5, r6, r7, r8, r9, r10, r11, lr}
	push	{r4, r5, r6, r7, r8, r9, r10, r11, lr}
	.pad	#20
	sub	sp, sp, #20
	ldr	r12, [r1]
	ldr	r9, [r1, #4]
	ldr	r8, [r1, #8]
	ldr	r10, [r1, #12]
	ldmib	r2, {r6, r7}
	ldr	r5, [r2, #16]
	ldr	r11, [r2]
	ldr	r4, [r2, #12]
	str	r5, [sp]                @ 4-byte Spill
	ldr	r5, [r2, #20]
	adds	lr, r11, r12
	ldr	r11, [r2, #32]
	add	r12, r1, #16
	adcs	r6, r6, r9
	add	r9, r1, #28
	adcs	r7, r7, r8
	str	r5, [sp, #4]            @ 4-byte Spill
	ldr	r5, [r2, #24]
	str	r5, [sp, #12]           @ 4-byte Spill
	ldr	r5, [r2, #28]
	ldr	r2, [r2, #36]
	str	r5, [sp, #16]           @ 4-byte Spill
	str	r2, [sp, #8]            @ 4-byte Spill
	adcs	r5, r4, r10
	ldm	r9, {r4, r8, r9}
	ldm	r12, {r1, r2, r12}
	str	lr, [r0]
	stmib	r0, {r6, r7}
	ldr	r7, [sp]                @ 4-byte Reload
	str	r5, [r0, #12]
	adcs	r1, r7, r1
	ldr	r7, [sp, #4]            @ 4-byte Reload
	str	r1, [r0, #16]
	ldr	r1, [sp, #12]           @ 4-byte Reload
	adcs	r2, r7, r2
	mov	r7, #0
	adcs	r12, r1, r12
	ldr	r1, [sp, #16]           @ 4-byte Reload
	adcs	r10, r1, r4
	ldr	r1, [sp, #8]            @ 4-byte Reload
	adcs	r8, r11, r8
	adcs	lr, r1, r9
	adc	r1, r7, #0
	ldr	r7, [r3]
	ldmib	r3, {r4, r5, r6}
	ldr	r3, [r3, #16]
	subs	r7, r2, r7
	sbcs	r4, r12, r4
	sbcs	r5, r10, r5
	sbcs	r6, r8, r6
	sbcs	r3, lr, r3
	sbc	r1, r1, #0
	ands	r1, r1, #1
	movne	r7, r2
	movne	r4, r12
	movne	r5, r10
	cmp	r1, #0
	movne	r6, r8
	movne	r3, lr
	str	r7, [r0, #20]
	str	r4, [r0, #24]
	str	r5, [r0, #28]
	str	r6, [r0, #32]
	str	r3, [r0, #36]
	add	sp, sp, #20
	pop	{r4, r5, r6, r7, r8, r9, r10, r11, lr}
	mov	pc, lr
.Lfunc_end78:
	.size	mcl_fpDbl_add5L, .Lfunc_end78-mcl_fpDbl_add5L
	.cantunwind
	.fnend

	.globl	mcl_fpDbl_sub5L
	.align	2
	.type	mcl_fpDbl_sub5L,%function
mcl_fpDbl_sub5L:                        @ @mcl_fpDbl_sub5L
	.fnstart
@ BB#0:
	.save	{r4, r5, r6, r7, r8, r9, r10, r11, lr}
	push	{r4, r5, r6, r7, r8, r9, r10, r11, lr}
	.pad	#32
	sub	sp, sp, #32
	ldr	r7, [r2, #32]
	add	r8, r1, #12
	str	r7, [sp, #24]           @ 4-byte Spill
	ldr	r7, [r2, #36]
	str	r7, [sp, #28]           @ 4-byte Spill
	ldr	r7, [r1, #32]
	str	r7, [sp, #16]           @ 4-byte Spill
	ldr	r7, [r1, #36]
	str	r7, [sp, #20]           @ 4-byte Spill
	ldmib	r2, {r9, r10, r11}
	ldr	r7, [r2, #16]
	str	r7, [sp]                @ 4-byte Spill
	ldr	r7, [r2, #20]
	str	r7, [sp, #4]            @ 4-byte Spill
	ldr	r7, [r2, #24]
	str	r7, [sp, #8]            @ 4-byte Spill
	ldr	r7, [r2, #28]
	ldr	r2, [r2]
	str	r7, [sp, #12]           @ 4-byte Spill
	ldm	r8, {r4, r5, r6, r7, r8}
	ldm	r1, {r1, r12, lr}
	subs	r1, r1, r2
	sbcs	r2, r12, r9
	stm	r0, {r1, r2}
	sbcs	r1, lr, r10
	str	r1, [r0, #8]
	sbcs	r1, r4, r11
	ldr	r2, [sp, #4]            @ 4-byte Reload
	str	r1, [r0, #12]
	ldr	r1, [sp]                @ 4-byte Reload
	sbcs	r1, r5, r1
	ldr	r5, [sp, #16]           @ 4-byte Reload
	sbcs	r2, r6, r2
	ldr	r6, [sp, #8]            @ 4-byte Reload
	str	r1, [r0, #16]
	mov	r1, #0
	sbcs	r7, r7, r6
	ldr	r6, [sp, #12]           @ 4-byte Reload
	sbcs	r9, r8, r6
	ldr	r6, [sp, #24]           @ 4-byte Reload
	sbcs	r8, r5, r6
	ldr	r6, [sp, #28]           @ 4-byte Reload
	ldr	r5, [sp, #20]           @ 4-byte Reload
	sbcs	lr, r5, r6
	sbc	r12, r1, #0
	ldm	r3, {r1, r4, r5, r6}
	ldr	r3, [r3, #16]
	adds	r1, r2, r1
	adcs	r4, r7, r4
	adcs	r5, r9, r5
	adcs	r6, r8, r6
	adc	r3, lr, r3
	ands	r12, r12, #1
	moveq	r1, r2
	moveq	r4, r7
	moveq	r5, r9
	cmp	r12, #0
	moveq	r6, r8
	moveq	r3, lr
	str	r1, [r0, #20]
	str	r4, [r0, #24]
	str	r5, [r0, #28]
	str	r6, [r0, #32]
	str	r3, [r0, #36]
	add	sp, sp, #32
	pop	{r4, r5, r6, r7, r8, r9, r10, r11, lr}
	mov	pc, lr
.Lfunc_end79:
	.size	mcl_fpDbl_sub5L, .Lfunc_end79-mcl_fpDbl_sub5L
	.cantunwind
	.fnend

	.globl	mcl_fp_mulUnitPre6L
	.align	2
	.type	mcl_fp_mulUnitPre6L,%function
mcl_fp_mulUnitPre6L:                    @ @mcl_fp_mulUnitPre6L
	.fnstart
@ BB#0:
	.save	{r4, r5, r6, r7, r8, r9, r10, r11, lr}
	push	{r4, r5, r6, r7, r8, r9, r10, r11, lr}
	ldr	r12, [r1]
	ldmib	r1, {r3, lr}
	ldr	r11, [r1, #12]
	ldr	r9, [r1, #16]
	ldr	r8, [r1, #20]
	umull	r4, r10, lr, r2
	umull	r1, r7, r12, r2
	mov	r5, r7
	mov	r6, r4
	umlal	r5, r6, r3, r2
	stm	r0, {r1, r5, r6}
	umull	r5, r6, r3, r2
	umull	r1, r12, r11, r2
	adds	r3, r7, r5
	adcs	r3, r6, r4
	adcs	r1, r10, r1
	str	r1, [r0, #12]
	umull	r1, r3, r9, r2
	adcs	r1, r12, r1
	str	r1, [r0, #16]
	umull	r1, r7, r8, r2
	adcs	r1, r3, r1
	str	r1, [r0, #20]
	adc	r1, r7, #0
	str	r1, [r0, #24]
	pop	{r4, r5, r6, r7, r8, r9, r10, r11, lr}
	mov	pc, lr
.Lfunc_end80:
	.size	mcl_fp_mulUnitPre6L, .Lfunc_end80-mcl_fp_mulUnitPre6L
	.cantunwind
	.fnend

	.globl	mcl_fpDbl_mulPre6L
	.align	2
	.type	mcl_fpDbl_mulPre6L,%function
mcl_fpDbl_mulPre6L:                     @ @mcl_fpDbl_mulPre6L
	.fnstart
@ BB#0:
	.save	{r4, r5, r6, r7, r8, r9, r10, r11, lr}
	push	{r4, r5, r6, r7, r8, r9, r10, r11, lr}
	.pad	#48
	sub	sp, sp, #48
	str	r2, [sp, #44]           @ 4-byte Spill
	ldr	r3, [r2]
	ldm	r1, {r12, lr}
	ldr	r2, [r1, #8]
	mov	r8, r0
	ldr	r10, [r1, #12]
	umull	r0, r4, r12, r3
	umull	r6, r7, lr, r3
	str	r2, [sp, #24]           @ 4-byte Spill
	adds	r6, r4, r6
	str	r0, [sp, #32]           @ 4-byte Spill
	umull	r5, r6, r2, r3
	adcs	r7, r7, r5
	umlal	r4, r5, lr, r3
	umull	r7, r11, r10, r3
	adcs	r0, r6, r7
	ldr	r7, [r1, #16]
	str	r0, [sp, #40]           @ 4-byte Spill
	umull	r6, r0, r7, r3
	adcs	r2, r11, r6
	ldr	r6, [r1, #20]
	str	r2, [sp, #36]           @ 4-byte Spill
	umull	r11, r2, r6, r3
	adcs	r0, r0, r11
	str	r0, [sp, #16]           @ 4-byte Spill
	ldr	r0, [sp, #32]           @ 4-byte Reload
	adc	r2, r2, #0
	str	r2, [sp, #12]           @ 4-byte Spill
	str	r0, [r8]
	ldr	r0, [sp, #44]           @ 4-byte Reload
	ldr	r3, [r0, #4]
	umull	r11, r9, r12, r3
	adds	r2, r11, r4
	umull	r4, r11, lr, r3
	str	r9, [sp, #28]           @ 4-byte Spill
	adcs	lr, r4, r5
	ldr	r5, [sp, #24]           @ 4-byte Reload
	str	r2, [sp, #32]           @ 4-byte Spill
	umull	r4, r2, r10, r3
	str	r2, [sp, #20]           @ 4-byte Spill
	umull	r2, r10, r5, r3
	ldr	r5, [sp, #40]           @ 4-byte Reload
	adcs	r2, r2, r5
	ldr	r5, [sp, #36]           @ 4-byte Reload
	adcs	r4, r4, r5
	umull	r5, r9, r7, r3
	ldr	r7, [sp, #16]           @ 4-byte Reload
	adcs	r5, r5, r7
	umull	r7, r12, r6, r3
	ldr	r3, [sp, #12]           @ 4-byte Reload
	adcs	r7, r7, r3
	mov	r3, #0
	adc	r6, r3, #0
	ldr	r3, [sp, #28]           @ 4-byte Reload
	adds	r3, lr, r3
	adcs	r2, r2, r11
	adcs	lr, r4, r10
	ldr	r4, [sp, #20]           @ 4-byte Reload
	adcs	r10, r5, r4
	ldr	r4, [r1, #8]
	adcs	r11, r7, r9
	ldr	r9, [r1, #4]
	adc	r7, r6, r12
	ldr	r6, [r0, #8]
	ldr	r0, [r1]
	str	r7, [sp, #36]           @ 4-byte Spill
	ldr	r7, [sp, #32]           @ 4-byte Reload
	str	r9, [sp, #8]            @ 4-byte Spill
	umull	r12, r5, r0, r6
	str	r0, [sp, #40]           @ 4-byte Spill
	adds	r0, r12, r3
	str	r7, [r8, #4]
	ldr	r7, [r1, #12]
	ldr	r12, [r1, #20]
	str	r5, [sp, #28]           @ 4-byte Spill
	str	r0, [sp, #32]           @ 4-byte Spill
	umull	r3, r0, r9, r6
	str	r0, [sp, #24]           @ 4-byte Spill
	adcs	r0, r3, r2
	str	r0, [sp, #12]           @ 4-byte Spill
	umull	r3, r0, r4, r6
	str	r0, [sp, #20]           @ 4-byte Spill
	adcs	r0, r3, lr
	ldr	lr, [r1, #16]
	ldr	r9, [sp, #12]           @ 4-byte Reload
	str	r0, [sp, #4]            @ 4-byte Spill
	umull	r2, r0, r7, r6
	str	r0, [sp, #16]           @ 4-byte Spill
	ldr	r0, [sp, #36]           @ 4-byte Reload
	adcs	r2, r2, r10
	umull	r10, r5, lr, r6
	adcs	r10, r10, r11
	umull	r11, r3, r12, r6
	adcs	r6, r11, r0
	mov	r0, #0
	adc	r11, r0, #0
	ldr	r0, [sp, #28]           @ 4-byte Reload
	adds	r0, r9, r0
	ldr	r9, [sp, #4]            @ 4-byte Reload
	str	r0, [sp]                @ 4-byte Spill
	ldr	r0, [sp, #24]           @ 4-byte Reload
	adcs	r0, r9, r0
	str	r0, [sp, #12]           @ 4-byte Spill
	ldr	r0, [sp, #20]           @ 4-byte Reload
	adcs	r9, r2, r0
	ldr	r0, [sp, #16]           @ 4-byte Reload
	adcs	r10, r10, r0
	adcs	r0, r6, r5
	ldr	r5, [sp, #8]            @ 4-byte Reload
	str	r0, [sp, #24]           @ 4-byte Spill
	adc	r0, r11, r3
	str	r0, [sp, #28]           @ 4-byte Spill
	ldr	r0, [sp, #32]           @ 4-byte Reload
	str	r0, [r8, #8]
	ldr	r0, [sp, #44]           @ 4-byte Reload
	ldr	r6, [r0, #12]
	umull	r11, r3, r7, r6
	str	r3, [sp, #36]           @ 4-byte Spill
	umull	r7, r3, r4, r6
	str	r3, [sp, #32]           @ 4-byte Spill
	umull	r4, r3, r5, r6
	str	r3, [sp, #20]           @ 4-byte Spill
	ldr	r3, [sp, #40]           @ 4-byte Reload
	umull	r5, r2, r3, r6
	ldr	r3, [sp]                @ 4-byte Reload
	str	r2, [sp, #16]           @ 4-byte Spill
	ldr	r2, [sp, #28]           @ 4-byte Reload
	adds	r3, r5, r3
	str	r3, [sp, #40]           @ 4-byte Spill
	ldr	r3, [sp, #12]           @ 4-byte Reload
	adcs	r4, r4, r3
	ldr	r3, [sp, #24]           @ 4-byte Reload
	adcs	r7, r7, r9
	adcs	r9, r11, r10
	umull	r5, r11, lr, r6
	adcs	r3, r5, r3
	umull	r5, r10, r12, r6
	mov	r6, #0
	adcs	r2, r5, r2
	adc	r5, r6, #0
	ldr	r6, [sp, #16]           @ 4-byte Reload
	adds	r12, r4, r6
	ldr	r4, [sp, #20]           @ 4-byte Reload
	adcs	lr, r7, r4
	ldr	r4, [sp, #32]           @ 4-byte Reload
	ldr	r7, [sp, #36]           @ 4-byte Reload
	adcs	r9, r9, r4
	adcs	r3, r3, r7
	adcs	r2, r2, r11
	str	r3, [sp, #20]           @ 4-byte Spill
	str	r2, [sp, #28]           @ 4-byte Spill
	adc	r2, r5, r10
	ldr	r5, [r0, #16]
	str	r2, [sp, #36]           @ 4-byte Spill
	ldr	r2, [sp, #40]           @ 4-byte Reload
	str	r2, [r8, #12]
	ldr	r2, [r1]
	str	r2, [sp, #40]           @ 4-byte Spill
	ldmib	r1, {r0, r6}
	umull	r7, r4, r2, r5
	ldr	r3, [r1, #12]
	adds	r2, r7, r12
	str	r4, [sp, #24]           @ 4-byte Spill
	str	r2, [sp, #32]           @ 4-byte Spill
	umull	r7, r2, r0, r5
	str	r2, [sp, #16]           @ 4-byte Spill
	adcs	r2, r7, lr
	str	r2, [sp, #4]            @ 4-byte Spill
	umull	r4, r2, r6, r5
	str	r2, [sp, #12]           @ 4-byte Spill
	adcs	r2, r4, r9
	ldr	r4, [sp, #28]           @ 4-byte Reload
	ldr	r9, [sp, #4]            @ 4-byte Reload
	str	r2, [sp]                @ 4-byte Spill
	umull	r7, r2, r3, r5
	str	r2, [sp, #8]            @ 4-byte Spill
	ldr	r2, [sp, #20]           @ 4-byte Reload
	adcs	r7, r7, r2
	ldr	r2, [r1, #16]
	ldr	r1, [r1, #20]
	umull	r10, lr, r2, r5
	umull	r11, r12, r1, r5
	adcs	r10, r10, r4
	ldr	r4, [sp, #36]           @ 4-byte Reload
	adcs	r5, r11, r4
	mov	r4, #0
	adc	r11, r4, #0
	ldr	r4, [sp, #24]           @ 4-byte Reload
	adds	r4, r9, r4
	ldr	r9, [sp]                @ 4-byte Reload
	str	r4, [sp, #4]            @ 4-byte Spill
	ldr	r4, [sp, #16]           @ 4-byte Reload
	adcs	r4, r9, r4
	str	r4, [sp, #24]           @ 4-byte Spill
	ldr	r4, [sp, #12]           @ 4-byte Reload
	adcs	r4, r7, r4
	str	r4, [sp, #20]           @ 4-byte Spill
	ldr	r4, [sp, #8]            @ 4-byte Reload
	adcs	r10, r10, r4
	adcs	lr, r5, lr
	ldr	r5, [sp, #44]           @ 4-byte Reload
	adc	r7, r11, r12
	str	r7, [sp, #28]           @ 4-byte Spill
	ldr	r7, [sp, #32]           @ 4-byte Reload
	ldr	r5, [r5, #20]
	str	r7, [r8, #16]
	umull	r11, r7, r3, r5
	str	r7, [sp, #44]           @ 4-byte Spill
	umull	r3, r7, r6, r5
	umull	r6, r12, r0, r5
	str	r7, [sp, #36]           @ 4-byte Spill
	ldr	r7, [sp, #40]           @ 4-byte Reload
	umull	r4, r0, r7, r5
	ldr	r7, [sp, #4]            @ 4-byte Reload
	adds	r9, r4, r7
	ldr	r4, [sp, #24]           @ 4-byte Reload
	str	r9, [r8, #20]
	adcs	r6, r6, r4
	ldr	r4, [sp, #20]           @ 4-byte Reload
	adcs	r3, r3, r4
	adcs	r7, r11, r10
	umull	r4, r10, r2, r5
	adcs	r2, r4, lr
	umull	r4, lr, r1, r5
	ldr	r1, [sp, #28]           @ 4-byte Reload
	adcs	r1, r4, r1
	mov	r4, #0
	adc	r4, r4, #0
	adds	r5, r6, r0
	ldr	r0, [sp, #36]           @ 4-byte Reload
	adcs	r3, r3, r12
	str	r5, [r8, #24]
	str	r3, [r8, #28]
	adcs	r3, r7, r0
	ldr	r0, [sp, #44]           @ 4-byte Reload
	str	r3, [r8, #32]
	adcs	r2, r2, r0
	adcs	r1, r1, r10
	str	r2, [r8, #36]
	str	r1, [r8, #40]
	adc	r1, r4, lr
	str	r1, [r8, #44]
	add	sp, sp, #48
	pop	{r4, r5, r6, r7, r8, r9, r10, r11, lr}
	mov	pc, lr
.Lfunc_end81:
	.size	mcl_fpDbl_mulPre6L, .Lfunc_end81-mcl_fpDbl_mulPre6L
	.cantunwind
	.fnend

	.globl	mcl_fpDbl_sqrPre6L
	.align	2
	.type	mcl_fpDbl_sqrPre6L,%function
mcl_fpDbl_sqrPre6L:                     @ @mcl_fpDbl_sqrPre6L
	.fnstart
@ BB#0:
	.save	{r4, r5, r6, r7, r8, r9, r10, r11, lr}
	push	{r4, r5, r6, r7, r8, r9, r10, r11, lr}
	.pad	#56
	sub	sp, sp, #56
	ldm	r1, {r2, r3}
	ldr	r7, [r1, #12]
	mov	lr, r0
	ldr	r0, [r1, #8]
	ldr	r9, [r1, #16]
	ldr	r12, [r1, #20]
	umull	r10, r6, r7, r2
	str	r0, [sp, #48]           @ 4-byte Spill
	umull	r4, r8, r0, r2
	umull	r5, r0, r2, r2
	str	r7, [sp, #44]           @ 4-byte Spill
	str	r6, [sp, #36]           @ 4-byte Spill
	umull	r6, r7, r3, r2
	str	r5, [sp, #24]           @ 4-byte Spill
	adds	r11, r0, r6
	ldr	r5, [sp, #36]           @ 4-byte Reload
	str	r7, [sp, #52]           @ 4-byte Spill
	adcs	r7, r7, r4
	umlal	r0, r4, r3, r2
	adcs	r7, r8, r10
	str	r7, [sp, #40]           @ 4-byte Spill
	umull	r7, r10, r9, r2
	adcs	r7, r5, r7
	str	r7, [sp, #32]           @ 4-byte Spill
	umull	r7, r8, r12, r2
	adcs	r11, r10, r7
	adc	r2, r8, #0
	adds	r0, r6, r0
	umull	r6, r10, r3, r3
	str	r0, [sp, #28]           @ 4-byte Spill
	ldr	r0, [sp, #24]           @ 4-byte Reload
	adcs	r4, r6, r4
	str	r0, [lr]
	umull	r6, r0, r12, r3
	str	r0, [sp, #36]           @ 4-byte Spill
	umull	r5, r0, r9, r3
	str	r0, [sp, #24]           @ 4-byte Spill
	ldr	r0, [sp, #44]           @ 4-byte Reload
	umull	r9, r12, r0, r3
	ldr	r0, [sp, #48]           @ 4-byte Reload
	umull	r7, r8, r0, r3
	ldr	r0, [sp, #40]           @ 4-byte Reload
	adcs	r3, r7, r0
	ldr	r0, [sp, #32]           @ 4-byte Reload
	adcs	r7, r9, r0
	ldr	r0, [sp, #52]           @ 4-byte Reload
	adcs	r5, r5, r11
	adcs	r6, r6, r2
	mov	r2, #0
	adc	r2, r2, #0
	adds	r4, r4, r0
	ldr	r0, [sp, #28]           @ 4-byte Reload
	adcs	r11, r3, r10
	adcs	r8, r7, r8
	ldr	r7, [r1, #4]
	adcs	r10, r5, r12
	ldr	r5, [r1, #12]
	str	r0, [lr, #4]
	ldr	r0, [sp, #24]           @ 4-byte Reload
	str	r7, [sp, #16]           @ 4-byte Spill
	adcs	r0, r6, r0
	ldr	r6, [r1, #8]
	str	r0, [sp, #12]           @ 4-byte Spill
	ldr	r0, [sp, #36]           @ 4-byte Reload
	adc	r0, r2, r0
	str	r0, [sp, #44]           @ 4-byte Spill
	ldr	r0, [r1]
	umull	r3, r2, r0, r6
	str	r0, [sp, #48]           @ 4-byte Spill
	adds	r0, r3, r4
	str	r2, [sp, #36]           @ 4-byte Spill
	ldr	r2, [r1, #16]
	str	r0, [sp, #52]           @ 4-byte Spill
	umull	r3, r0, r7, r6
	str	r0, [sp, #32]           @ 4-byte Spill
	adcs	r0, r3, r11
	ldr	r3, [sp, #44]           @ 4-byte Reload
	str	r0, [sp, #24]           @ 4-byte Spill
	umull	r4, r0, r6, r6
	str	r0, [sp, #28]           @ 4-byte Spill
	adcs	r0, r4, r8
	umull	r12, r4, r5, r6
	str	r0, [sp, #20]           @ 4-byte Spill
	adcs	r0, r12, r10
	ldr	r10, [sp, #24]          @ 4-byte Reload
	str	r4, [sp, #40]           @ 4-byte Spill
	str	r0, [sp, #8]            @ 4-byte Spill
	umull	r9, r0, r2, r6
	ldr	r7, [sp, #20]           @ 4-byte Reload
	str	r0, [sp]                @ 4-byte Spill
	ldr	r0, [sp, #12]           @ 4-byte Reload
	adcs	r9, r9, r0
	ldr	r0, [r1, #20]
	umull	r11, r8, r0, r6
	adcs	r6, r11, r3
	mov	r3, #0
	adc	r11, r3, #0
	ldr	r3, [sp, #36]           @ 4-byte Reload
	adds	r3, r10, r3
	str	r3, [sp, #24]           @ 4-byte Spill
	ldr	r3, [sp, #32]           @ 4-byte Reload
	adcs	r3, r7, r3
	ldr	r7, [sp, #8]            @ 4-byte Reload
	str	r3, [sp, #4]            @ 4-byte Spill
	ldr	r3, [sp, #28]           @ 4-byte Reload
	adcs	r3, r7, r3
	str	r3, [sp, #28]           @ 4-byte Spill
	adcs	r3, r9, r4
	ldr	r4, [sp, #16]           @ 4-byte Reload
	ldr	r9, [sp, #48]           @ 4-byte Reload
	str	r3, [sp, #20]           @ 4-byte Spill
	ldr	r3, [sp]                @ 4-byte Reload
	ldr	r7, [sp, #20]           @ 4-byte Reload
	adcs	r3, r6, r3
	str	r3, [sp, #12]           @ 4-byte Spill
	umull	r6, r3, r0, r5
	adc	r11, r11, r8
	str	r3, [sp, #44]           @ 4-byte Spill
	umull	r3, r0, r2, r5
	str	r0, [sp, #36]           @ 4-byte Spill
	umull	r2, r0, r5, r5
	str	r0, [sp, #32]           @ 4-byte Spill
	umull	r0, r10, r4, r5
	umull	r4, r8, r9, r5
	ldr	r5, [sp, #24]           @ 4-byte Reload
	adds	r4, r4, r5
	ldr	r5, [sp, #4]            @ 4-byte Reload
	adcs	r0, r0, r5
	ldr	r5, [sp, #28]           @ 4-byte Reload
	adcs	r5, r12, r5
	adcs	r2, r2, r7
	ldr	r7, [sp, #12]           @ 4-byte Reload
	adcs	r3, r3, r7
	mov	r7, #0
	adcs	r6, r6, r11
	adc	r7, r7, #0
	adds	r9, r0, r8
	ldr	r0, [sp, #40]           @ 4-byte Reload
	adcs	r11, r5, r10
	adcs	r0, r2, r0
	str	r0, [sp, #20]           @ 4-byte Spill
	ldr	r0, [sp, #32]           @ 4-byte Reload
	adcs	r0, r3, r0
	add	r3, r1, #8
	str	r0, [sp, #16]           @ 4-byte Spill
	ldr	r0, [sp, #36]           @ 4-byte Reload
	adcs	r12, r6, r0
	ldr	r0, [sp, #52]           @ 4-byte Reload
	str	r0, [lr, #8]
	ldr	r0, [sp, #44]           @ 4-byte Reload
	str	r4, [lr, #12]
	adc	r0, r7, r0
	str	r0, [sp, #12]           @ 4-byte Spill
	ldm	r1, {r4, r6}
	ldm	r3, {r0, r2, r3}
	ldr	r1, [r1, #20]
	umull	r5, r7, r2, r1
	str	r5, [sp, #32]           @ 4-byte Spill
	str	r7, [sp, #52]           @ 4-byte Spill
	umull	r5, r7, r0, r1
	str	r5, [sp, #28]           @ 4-byte Spill
	str	r7, [sp, #48]           @ 4-byte Spill
	umull	r5, r7, r6, r1
	str	r5, [sp, #24]           @ 4-byte Spill
	str	r7, [sp, #44]           @ 4-byte Spill
	umull	r5, r7, r4, r1
	str	r5, [sp, #8]            @ 4-byte Spill
	str	r7, [sp, #36]           @ 4-byte Spill
	umull	r7, r5, r2, r3
	str	r5, [sp, #4]            @ 4-byte Spill
	umull	r2, r5, r0, r3
	umull	r0, r10, r6, r3
	umull	r6, r8, r4, r3
	adds	r4, r6, r9
	str	r5, [sp]                @ 4-byte Spill
	adcs	r11, r0, r11
	ldr	r0, [sp, #20]           @ 4-byte Reload
	str	r4, [sp, #40]           @ 4-byte Spill
	umull	r4, r9, r3, r3
	adcs	r5, r2, r0
	ldr	r0, [sp, #16]           @ 4-byte Reload
	adcs	r6, r7, r0
	umull	r0, r2, r1, r3
	ldr	r3, [sp, #12]           @ 4-byte Reload
	mov	r7, #0
	adcs	r12, r4, r12
	ldr	r4, [sp]                @ 4-byte Reload
	adcs	r3, r0, r3
	adc	r7, r7, #0
	adds	r8, r11, r8
	adcs	r5, r5, r10
	adcs	r6, r6, r4
	ldr	r4, [sp, #4]            @ 4-byte Reload
	adcs	r4, r12, r4
	adcs	r3, r3, r9
	adc	r10, r7, r2
	ldr	r7, [sp, #8]            @ 4-byte Reload
	adds	r12, r7, r8
	ldr	r7, [sp, #24]           @ 4-byte Reload
	adcs	r9, r7, r5
	ldr	r5, [sp, #28]           @ 4-byte Reload
	ldr	r7, [sp, #36]           @ 4-byte Reload
	adcs	r6, r5, r6
	ldr	r5, [sp, #32]           @ 4-byte Reload
	adcs	r4, r5, r4
	adcs	r0, r0, r3
	umull	r3, r8, r1, r1
	adcs	r1, r3, r10
	mov	r3, #0
	adc	r3, r3, #0
	adds	r5, r9, r7
	ldr	r7, [sp, #44]           @ 4-byte Reload
	adcs	r6, r6, r7
	ldr	r7, [sp, #48]           @ 4-byte Reload
	adcs	r4, r4, r7
	ldr	r7, [sp, #52]           @ 4-byte Reload
	adcs	r0, r0, r7
	adcs	r1, r1, r2
	adc	r2, r3, r8
	ldr	r3, [sp, #40]           @ 4-byte Reload
	str	r3, [lr, #16]
	add	r3, lr, #36
	str	r12, [lr, #20]
	str	r5, [lr, #24]
	str	r6, [lr, #28]
	str	r4, [lr, #32]
	stm	r3, {r0, r1, r2}
	add	sp, sp, #56
	pop	{r4, r5, r6, r7, r8, r9, r10, r11, lr}
	mov	pc, lr
.Lfunc_end82:
	.size	mcl_fpDbl_sqrPre6L, .Lfunc_end82-mcl_fpDbl_sqrPre6L
	.cantunwind
	.fnend

	.globl	mcl_fp_mont6L
	.align	2
	.type	mcl_fp_mont6L,%function
mcl_fp_mont6L:                          @ @mcl_fp_mont6L
	.fnstart
@ BB#0:
	.save	{r4, r5, r6, r7, r8, r9, r10, r11, lr}
	push	{r4, r5, r6, r7, r8, r9, r10, r11, lr}
	.pad	#116
	sub	sp, sp, #116
	str	r0, [sp, #56]           @ 4-byte Spill
	mov	r0, r2
	str	r2, [sp, #60]           @ 4-byte Spill
	ldm	r0, {r2, r6, r7}
	ldr	r0, [r0, #12]
	ldr	r5, [r3, #8]
	ldr	r9, [r3]
	ldr	r11, [r1, #8]
	ldr	lr, [r1, #12]
	ldr	r12, [r3, #4]
	str	r7, [sp, #48]           @ 4-byte Spill
	ldr	r7, [r1, #4]
	str	r0, [sp, #52]           @ 4-byte Spill
	ldr	r0, [r1]
	str	r5, [sp, #92]           @ 4-byte Spill
	str	r9, [sp, #84]           @ 4-byte Spill
	str	r11, [sp, #100]         @ 4-byte Spill
	str	lr, [sp, #64]           @ 4-byte Spill
	str	r12, [sp, #112]         @ 4-byte Spill
	str	r7, [sp, #108]          @ 4-byte Spill
	ldr	r7, [r3, #-4]
	umull	r4, r8, r0, r2
	str	r0, [sp, #88]           @ 4-byte Spill
	str	r4, [sp, #44]           @ 4-byte Spill
	mul	r0, r4, r7
	str	r7, [sp, #80]           @ 4-byte Spill
	ldr	r7, [r1, #20]
	ldr	r1, [r1, #16]
	umull	r10, r4, r0, r5
	str	r4, [sp, #36]           @ 4-byte Spill
	umull	r4, r5, r0, r9
	str	r10, [sp, #16]          @ 4-byte Spill
	mov	r9, r5
	str	r5, [sp, #12]           @ 4-byte Spill
	str	r4, [sp, #40]           @ 4-byte Spill
	umull	r5, r4, r7, r2
	str	r7, [sp, #104]          @ 4-byte Spill
	ldr	r7, [sp, #108]          @ 4-byte Reload
	str	r1, [sp, #96]           @ 4-byte Spill
	umlal	r9, r10, r0, r12
	str	r5, [sp, #72]           @ 4-byte Spill
	str	r4, [sp, #76]           @ 4-byte Spill
	umull	r5, r4, r1, r2
	str	r4, [sp, #68]           @ 4-byte Spill
	umull	r1, r4, lr, r2
	str	r5, [sp, #28]           @ 4-byte Spill
	umull	lr, r5, r11, r2
	str	r4, [sp, #24]           @ 4-byte Spill
	umull	r11, r4, r7, r2
	adds	r7, r8, r11
	adcs	r4, r4, lr
	ldr	r7, [r3, #12]
	adcs	r1, r5, r1
	ldr	r4, [sp, #24]           @ 4-byte Reload
	ldr	r5, [sp, #12]           @ 4-byte Reload
	str	r1, [sp, #32]           @ 4-byte Spill
	ldr	r1, [sp, #28]           @ 4-byte Reload
	adcs	r1, r4, r1
	ldr	r4, [sp, #68]           @ 4-byte Reload
	str	r1, [sp, #28]           @ 4-byte Spill
	ldr	r1, [sp, #72]           @ 4-byte Reload
	str	r7, [sp, #72]           @ 4-byte Spill
	adcs	r1, r4, r1
	str	r1, [sp, #24]           @ 4-byte Spill
	ldr	r1, [sp, #76]           @ 4-byte Reload
	adc	r1, r1, #0
	str	r1, [sp, #20]           @ 4-byte Spill
	ldr	r1, [r3, #20]
	umull	r11, r4, r0, r1
	str	r1, [sp, #76]           @ 4-byte Spill
	ldr	r1, [r3, #16]
	str	r4, [sp, #8]            @ 4-byte Spill
	umull	r3, r4, r0, r12
	adds	r3, r5, r3
	str	r1, [sp, #68]           @ 4-byte Spill
	umull	r5, r12, r0, r1
	ldr	r1, [sp, #16]           @ 4-byte Reload
	adcs	r4, r4, r1
	umull	r4, r3, r0, r7
	ldr	r0, [sp, #36]           @ 4-byte Reload
	ldr	r7, [sp, #40]           @ 4-byte Reload
	adcs	r1, r0, r4
	ldr	r0, [sp, #8]            @ 4-byte Reload
	adcs	r3, r3, r5
	adcs	r4, r12, r11
	mov	r12, #0
	adc	r5, r0, #0
	ldr	r0, [sp, #108]          @ 4-byte Reload
	umlal	r8, lr, r0, r2
	ldr	r2, [sp, #44]           @ 4-byte Reload
	adds	r2, r7, r2
	adcs	r2, r9, r8
	str	r2, [sp, #44]           @ 4-byte Spill
	adcs	r2, r10, lr
	str	r2, [sp, #40]           @ 4-byte Spill
	ldr	r2, [sp, #32]           @ 4-byte Reload
	adcs	r1, r1, r2
	ldr	r2, [sp, #88]           @ 4-byte Reload
	str	r1, [sp, #36]           @ 4-byte Spill
	ldr	r1, [sp, #28]           @ 4-byte Reload
	adcs	r1, r3, r1
	mov	r3, r0
	str	r1, [sp, #32]           @ 4-byte Spill
	ldr	r1, [sp, #24]           @ 4-byte Reload
	adcs	r1, r4, r1
	str	r1, [sp, #28]           @ 4-byte Spill
	ldr	r1, [sp, #20]           @ 4-byte Reload
	adcs	r1, r5, r1
	str	r1, [sp, #24]           @ 4-byte Spill
	ldr	r1, [sp, #104]          @ 4-byte Reload
	adc	r11, r12, #0
	umull	lr, r10, r6, r1
	ldr	r1, [sp, #96]           @ 4-byte Reload
	umull	r7, r4, r6, r1
	ldr	r1, [sp, #100]          @ 4-byte Reload
	umull	r5, r12, r6, r1
	umull	r1, r8, r6, r0
	umull	r9, r0, r6, r2
	adds	r1, r0, r1
	adcs	r1, r8, r5
	ldr	r8, [sp, #64]           @ 4-byte Reload
	umlal	r0, r5, r6, r3
	ldr	r3, [sp, #44]           @ 4-byte Reload
	umull	r1, r2, r6, r8
	adcs	r1, r12, r1
	adcs	r2, r2, r7
	adcs	r12, r4, lr
	adc	r4, r10, #0
	adds	r7, r3, r9
	ldr	r3, [sp, #40]           @ 4-byte Reload
	ldr	r10, [sp, #68]          @ 4-byte Reload
	adcs	r9, r3, r0
	ldr	r0, [sp, #36]           @ 4-byte Reload
	adcs	r0, r0, r5
	ldr	r5, [sp, #112]          @ 4-byte Reload
	str	r0, [sp, #44]           @ 4-byte Spill
	ldr	r0, [sp, #32]           @ 4-byte Reload
	adcs	r0, r0, r1
	ldr	r1, [sp, #80]           @ 4-byte Reload
	str	r0, [sp, #40]           @ 4-byte Spill
	ldr	r0, [sp, #28]           @ 4-byte Reload
	adcs	r0, r0, r2
	str	r0, [sp, #36]           @ 4-byte Spill
	ldr	r0, [sp, #24]           @ 4-byte Reload
	adcs	r0, r0, r12
	str	r0, [sp, #32]           @ 4-byte Spill
	adcs	r0, r11, r4
	str	r0, [sp, #28]           @ 4-byte Spill
	mov	r0, #0
	adc	r0, r0, #0
	str	r0, [sp, #24]           @ 4-byte Spill
	mul	r0, r7, r1
	ldr	r1, [sp, #92]           @ 4-byte Reload
	umull	lr, r3, r0, r5
	umull	r6, r12, r0, r1
	ldr	r1, [sp, #84]           @ 4-byte Reload
	umull	r11, r2, r0, r1
	mov	r1, r6
	mov	r4, r2
	adds	r2, r2, lr
	umlal	r4, r1, r0, r5
	ldr	r5, [sp, #76]           @ 4-byte Reload
	adcs	r3, r3, r6
	umull	r2, lr, r0, r5
	ldr	r5, [sp, #72]           @ 4-byte Reload
	umull	r3, r6, r0, r5
	adcs	r12, r12, r3
	umull	r5, r3, r0, r10
	adcs	r0, r6, r5
	adcs	r2, r3, r2
	adc	r3, lr, #0
	adds	r7, r11, r7
	adcs	r7, r4, r9
	str	r7, [sp, #20]           @ 4-byte Spill
	ldr	r7, [sp, #44]           @ 4-byte Reload
	adcs	r1, r1, r7
	ldr	r7, [sp, #108]          @ 4-byte Reload
	str	r1, [sp, #44]           @ 4-byte Spill
	ldr	r1, [sp, #40]           @ 4-byte Reload
	adcs	r1, r12, r1
	str	r1, [sp, #40]           @ 4-byte Spill
	ldr	r1, [sp, #36]           @ 4-byte Reload
	adcs	r0, r0, r1
	str	r0, [sp, #36]           @ 4-byte Spill
	ldr	r0, [sp, #32]           @ 4-byte Reload
	adcs	r0, r2, r0
	ldr	r2, [sp, #48]           @ 4-byte Reload
	str	r0, [sp, #32]           @ 4-byte Spill
	ldr	r0, [sp, #28]           @ 4-byte Reload
	umull	r4, r5, r2, r8
	ldr	r8, [sp, #88]           @ 4-byte Reload
	adcs	r0, r3, r0
	str	r0, [sp, #28]           @ 4-byte Spill
	ldr	r0, [sp, #24]           @ 4-byte Reload
	adc	r0, r0, #0
	str	r0, [sp, #24]           @ 4-byte Spill
	ldr	r0, [sp, #104]          @ 4-byte Reload
	umull	r3, r1, r2, r0
	ldr	r0, [sp, #96]           @ 4-byte Reload
	str	r3, [sp, #8]            @ 4-byte Spill
	mov	r3, r2
	str	r1, [sp, #16]           @ 4-byte Spill
	umull	r6, r9, r2, r0
	ldr	r0, [sp, #100]          @ 4-byte Reload
	umull	r1, lr, r2, r0
	umull	r11, r0, r3, r8
	umull	r2, r12, r3, r7
	adds	r2, r0, r2
	str	r11, [sp, #12]          @ 4-byte Spill
	adcs	r2, r12, r1
	umlal	r0, r1, r3, r7
	ldr	r3, [sp, #20]           @ 4-byte Reload
	ldr	r7, [sp, #12]           @ 4-byte Reload
	adcs	r2, lr, r4
	adcs	r4, r5, r6
	ldr	r6, [sp, #8]            @ 4-byte Reload
	ldr	r5, [sp, #16]           @ 4-byte Reload
	adcs	r6, r9, r6
	adc	r5, r5, #0
	adds	r8, r3, r7
	ldr	r3, [sp, #44]           @ 4-byte Reload
	ldr	r7, [sp, #112]          @ 4-byte Reload
	adcs	r0, r3, r0
	str	r0, [sp, #48]           @ 4-byte Spill
	ldr	r0, [sp, #40]           @ 4-byte Reload
	adcs	r0, r0, r1
	ldr	r1, [sp, #80]           @ 4-byte Reload
	str	r0, [sp, #44]           @ 4-byte Spill
	ldr	r0, [sp, #36]           @ 4-byte Reload
	adcs	r0, r0, r2
	str	r0, [sp, #40]           @ 4-byte Spill
	ldr	r0, [sp, #32]           @ 4-byte Reload
	adcs	r0, r0, r4
	str	r0, [sp, #36]           @ 4-byte Spill
	ldr	r0, [sp, #28]           @ 4-byte Reload
	adcs	r0, r0, r6
	str	r0, [sp, #32]           @ 4-byte Spill
	ldr	r0, [sp, #24]           @ 4-byte Reload
	adcs	r0, r0, r5
	str	r0, [sp, #28]           @ 4-byte Spill
	mov	r0, #0
	adc	r0, r0, #0
	str	r0, [sp, #24]           @ 4-byte Spill
	mul	r0, r8, r1
	ldr	r1, [sp, #92]           @ 4-byte Reload
	umull	r2, r3, r0, r1
	ldr	r1, [sp, #84]           @ 4-byte Reload
	str	r3, [sp, #16]           @ 4-byte Spill
	umull	r3, r5, r0, r1
	mov	r1, r2
	str	r3, [sp, #20]           @ 4-byte Spill
	ldr	r3, [sp, #76]           @ 4-byte Reload
	mov	r4, r5
	umlal	r4, r1, r0, r7
	umull	r9, r6, r0, r3
	ldr	r3, [sp, #72]           @ 4-byte Reload
	str	r6, [sp, #12]           @ 4-byte Spill
	umull	r6, lr, r0, r10
	umull	r12, r10, r0, r3
	umull	r11, r3, r0, r7
	adds	r0, r5, r11
	adcs	r0, r3, r2
	ldr	r3, [sp, #52]           @ 4-byte Reload
	ldr	r0, [sp, #16]           @ 4-byte Reload
	adcs	r11, r0, r12
	ldr	r0, [sp, #12]           @ 4-byte Reload
	adcs	r10, r10, r6
	adcs	lr, lr, r9
	adc	r9, r0, #0
	ldr	r0, [sp, #20]           @ 4-byte Reload
	adds	r6, r0, r8
	ldr	r0, [sp, #104]          @ 4-byte Reload
	ldr	r8, [sp, #88]           @ 4-byte Reload
	umull	r7, r2, r3, r0
	ldr	r0, [sp, #64]           @ 4-byte Reload
	str	r7, [sp, #12]           @ 4-byte Spill
	str	r2, [sp, #20]           @ 4-byte Spill
	umull	r7, r2, r3, r0
	ldr	r0, [sp, #100]          @ 4-byte Reload
	str	r2, [sp, #8]            @ 4-byte Spill
	str	r7, [sp, #4]            @ 4-byte Spill
	ldr	r7, [sp, #108]          @ 4-byte Reload
	umull	r5, r2, r3, r0
	str	r2, [sp]                @ 4-byte Spill
	umull	r2, r0, r3, r8
	umull	r6, r12, r3, r7
	str	r2, [sp, #16]           @ 4-byte Spill
	ldr	r2, [sp, #48]           @ 4-byte Reload
	adcs	r4, r4, r2
	ldr	r2, [sp, #44]           @ 4-byte Reload
	adcs	r1, r1, r2
	str	r1, [sp, #48]           @ 4-byte Spill
	ldr	r1, [sp, #40]           @ 4-byte Reload
	adcs	r11, r11, r1
	ldr	r1, [sp, #36]           @ 4-byte Reload
	adcs	r10, r10, r1
	ldr	r1, [sp, #32]           @ 4-byte Reload
	adcs	r1, lr, r1
	str	r1, [sp, #40]           @ 4-byte Spill
	ldr	r1, [sp, #28]           @ 4-byte Reload
	adcs	r1, r9, r1
	str	r1, [sp, #36]           @ 4-byte Spill
	ldr	r1, [sp, #24]           @ 4-byte Reload
	adc	lr, r1, #0
	adds	r6, r0, r6
	ldr	r1, [sp, #4]            @ 4-byte Reload
	adcs	r2, r12, r5
	umlal	r0, r5, r3, r7
	ldr	r2, [sp]                @ 4-byte Reload
	adcs	r9, r2, r1
	ldr	r1, [sp, #96]           @ 4-byte Reload
	umull	r6, r2, r3, r1
	ldr	r1, [sp, #8]            @ 4-byte Reload
	adcs	r6, r1, r6
	ldr	r1, [sp, #12]           @ 4-byte Reload
	adcs	r2, r2, r1
	ldr	r1, [sp, #20]           @ 4-byte Reload
	adc	r8, r1, #0
	ldr	r1, [sp, #16]           @ 4-byte Reload
	adds	r4, r4, r1
	ldr	r1, [sp, #48]           @ 4-byte Reload
	adcs	r0, r1, r0
	ldr	r1, [sp, #92]           @ 4-byte Reload
	str	r0, [sp, #52]           @ 4-byte Spill
	adcs	r0, r11, r5
	ldr	r5, [sp, #112]          @ 4-byte Reload
	ldr	r11, [sp, #76]          @ 4-byte Reload
	str	r0, [sp, #48]           @ 4-byte Spill
	adcs	r0, r10, r9
	ldr	r10, [sp, #80]          @ 4-byte Reload
	ldr	r9, [sp, #72]           @ 4-byte Reload
	str	r0, [sp, #44]           @ 4-byte Spill
	ldr	r0, [sp, #40]           @ 4-byte Reload
	adcs	r0, r0, r6
	str	r0, [sp, #40]           @ 4-byte Spill
	ldr	r0, [sp, #36]           @ 4-byte Reload
	adcs	r0, r0, r2
	str	r0, [sp, #36]           @ 4-byte Spill
	adcs	r0, lr, r8
	ldr	r8, [sp, #68]           @ 4-byte Reload
	str	r0, [sp, #32]           @ 4-byte Spill
	mov	r0, #0
	adc	r0, r0, #0
	str	r0, [sp, #28]           @ 4-byte Spill
	mul	r0, r4, r10
	umull	r2, r12, r0, r1
	ldr	r1, [sp, #84]           @ 4-byte Reload
	umull	r3, r7, r0, r1
	mov	r1, r2
	str	r3, [sp, #24]           @ 4-byte Spill
	umull	lr, r3, r0, r5
	mov	r6, r7
	adds	r7, r7, lr
	umlal	r6, r1, r0, r5
	adcs	r2, r3, r2
	umull	r7, lr, r0, r11
	umull	r2, r3, r0, r9
	adcs	r12, r12, r2
	umull	r5, r2, r0, r8
	adcs	r0, r3, r5
	adcs	r2, r2, r7
	ldr	r7, [sp, #24]           @ 4-byte Reload
	adc	r3, lr, #0
	adds	r7, r7, r4
	ldr	r7, [sp, #52]           @ 4-byte Reload
	adcs	r7, r6, r7
	str	r7, [sp, #52]           @ 4-byte Spill
	ldr	r7, [sp, #48]           @ 4-byte Reload
	adcs	r1, r1, r7
	str	r1, [sp, #48]           @ 4-byte Spill
	ldr	r1, [sp, #44]           @ 4-byte Reload
	adcs	r1, r12, r1
	str	r1, [sp, #44]           @ 4-byte Spill
	ldr	r1, [sp, #40]           @ 4-byte Reload
	adcs	r0, r0, r1
	str	r0, [sp, #40]           @ 4-byte Spill
	ldr	r0, [sp, #36]           @ 4-byte Reload
	adcs	r0, r2, r0
	str	r0, [sp, #36]           @ 4-byte Spill
	ldr	r0, [sp, #32]           @ 4-byte Reload
	adcs	r0, r3, r0
	ldr	r3, [sp, #108]          @ 4-byte Reload
	str	r0, [sp, #32]           @ 4-byte Spill
	ldr	r0, [sp, #28]           @ 4-byte Reload
	adc	r0, r0, #0
	str	r0, [sp, #28]           @ 4-byte Spill
	ldr	r0, [sp, #60]           @ 4-byte Reload
	ldr	r4, [r0, #16]
	ldr	r0, [sp, #104]          @ 4-byte Reload
	umull	r12, lr, r4, r0
	ldr	r0, [sp, #64]           @ 4-byte Reload
	umull	r5, r6, r4, r3
	umull	r2, r8, r4, r0
	ldr	r0, [sp, #88]           @ 4-byte Reload
	umull	r7, r1, r4, r0
	str	r7, [sp, #24]           @ 4-byte Spill
	ldr	r7, [sp, #100]          @ 4-byte Reload
	adds	r5, r1, r5
	umull	r0, r5, r4, r7
	ldr	r7, [sp, #96]           @ 4-byte Reload
	adcs	r6, r6, r0
	umlal	r1, r0, r4, r3
	ldr	r3, [sp, #52]           @ 4-byte Reload
	adcs	r2, r5, r2
	umull	r5, r6, r4, r7
	ldr	r4, [sp, #24]           @ 4-byte Reload
	adcs	r7, r8, r5
	adcs	r6, r6, r12
	adc	r5, lr, #0
	adds	r8, r3, r4
	ldr	r3, [sp, #48]           @ 4-byte Reload
	adcs	r1, r3, r1
	str	r1, [sp, #52]           @ 4-byte Spill
	ldr	r1, [sp, #44]           @ 4-byte Reload
	adcs	r0, r1, r0
	ldr	r1, [sp, #92]           @ 4-byte Reload
	str	r0, [sp, #48]           @ 4-byte Spill
	ldr	r0, [sp, #40]           @ 4-byte Reload
	adcs	r0, r0, r2
	str	r0, [sp, #44]           @ 4-byte Spill
	ldr	r0, [sp, #36]           @ 4-byte Reload
	adcs	r0, r0, r7
	ldr	r7, [sp, #68]           @ 4-byte Reload
	str	r0, [sp, #40]           @ 4-byte Spill
	ldr	r0, [sp, #32]           @ 4-byte Reload
	adcs	r0, r0, r6
	ldr	r6, [sp, #112]          @ 4-byte Reload
	str	r0, [sp, #36]           @ 4-byte Spill
	ldr	r0, [sp, #28]           @ 4-byte Reload
	adcs	r0, r0, r5
	str	r0, [sp, #32]           @ 4-byte Spill
	mov	r0, #0
	adc	r0, r0, #0
	str	r0, [sp, #28]           @ 4-byte Spill
	mul	r0, r8, r10
	umull	r5, r12, r0, r1
	ldr	r1, [sp, #84]           @ 4-byte Reload
	umull	lr, r3, r0, r6
	umull	r10, r2, r0, r1
	mov	r1, r5
	mov	r4, r2
	adds	r2, r2, lr
	adcs	r3, r3, r5
	umlal	r4, r1, r0, r6
	umull	r2, lr, r0, r11
	ldr	r11, [sp, #88]          @ 4-byte Reload
	umull	r3, r5, r0, r9
	adcs	r12, r12, r3
	umull	r6, r3, r0, r7
	adcs	r0, r5, r6
	adcs	r2, r3, r2
	adc	r3, lr, #0
	adds	r7, r10, r8
	ldr	r7, [sp, #52]           @ 4-byte Reload
	adcs	r7, r4, r7
	str	r7, [sp, #52]           @ 4-byte Spill
	ldr	r7, [sp, #48]           @ 4-byte Reload
	adcs	r1, r1, r7
	str	r1, [sp, #48]           @ 4-byte Spill
	ldr	r1, [sp, #44]           @ 4-byte Reload
	adcs	r1, r12, r1
	str	r1, [sp, #44]           @ 4-byte Spill
	ldr	r1, [sp, #40]           @ 4-byte Reload
	adcs	r0, r0, r1
	str	r0, [sp, #40]           @ 4-byte Spill
	ldr	r0, [sp, #36]           @ 4-byte Reload
	adcs	r0, r2, r0
	str	r0, [sp, #36]           @ 4-byte Spill
	ldr	r0, [sp, #32]           @ 4-byte Reload
	adcs	r0, r3, r0
	ldr	r3, [sp, #108]          @ 4-byte Reload
	str	r0, [sp, #32]           @ 4-byte Spill
	ldr	r0, [sp, #28]           @ 4-byte Reload
	adc	r0, r0, #0
	str	r0, [sp, #28]           @ 4-byte Spill
	ldr	r0, [sp, #60]           @ 4-byte Reload
	ldr	r4, [r0, #20]
	ldr	r0, [sp, #104]          @ 4-byte Reload
	umull	r9, r1, r4, r0
	ldr	r0, [sp, #96]           @ 4-byte Reload
	umull	r2, r12, r4, r3
	str	r1, [sp, #60]           @ 4-byte Spill
	umull	r7, r8, r4, r0
	ldr	r0, [sp, #64]           @ 4-byte Reload
	umull	r5, r6, r4, r0
	ldr	r0, [sp, #100]          @ 4-byte Reload
	umull	r1, lr, r4, r0
	umull	r10, r0, r4, r11
	ldr	r11, [sp, #92]          @ 4-byte Reload
	adds	r2, r0, r2
	adcs	r2, r12, r1
	umlal	r0, r1, r4, r3
	ldr	r3, [sp, #52]           @ 4-byte Reload
	ldr	r12, [sp, #112]         @ 4-byte Reload
	adcs	r2, lr, r5
	adcs	r5, r6, r7
	ldr	r6, [sp, #60]           @ 4-byte Reload
	adcs	r7, r8, r9
	ldr	r9, [sp, #68]           @ 4-byte Reload
	adc	r6, r6, #0
	adds	r8, r3, r10
	ldr	r3, [sp, #48]           @ 4-byte Reload
	ldr	r10, [sp, #84]          @ 4-byte Reload
	adcs	lr, r3, r0
	ldr	r0, [sp, #44]           @ 4-byte Reload
	adcs	r0, r0, r1
	ldr	r1, [sp, #80]           @ 4-byte Reload
	str	r0, [sp, #108]          @ 4-byte Spill
	ldr	r0, [sp, #40]           @ 4-byte Reload
	adcs	r0, r0, r2
	str	r0, [sp, #104]          @ 4-byte Spill
	ldr	r0, [sp, #36]           @ 4-byte Reload
	adcs	r0, r0, r5
	ldr	r5, [sp, #72]           @ 4-byte Reload
	str	r0, [sp, #100]          @ 4-byte Spill
	ldr	r0, [sp, #32]           @ 4-byte Reload
	adcs	r0, r0, r7
	ldr	r7, [sp, #76]           @ 4-byte Reload
	str	r0, [sp, #96]           @ 4-byte Spill
	ldr	r0, [sp, #28]           @ 4-byte Reload
	adcs	r0, r0, r6
	str	r0, [sp, #88]           @ 4-byte Spill
	mov	r0, #0
	adc	r0, r0, #0
	str	r0, [sp, #64]           @ 4-byte Spill
	mul	r0, r8, r1
	umull	r3, r4, r0, r10
	umull	r1, r2, r0, r12
	adds	r1, r4, r1
	str	r3, [sp, #80]           @ 4-byte Spill
	umull	r6, r1, r0, r11
	adcs	r2, r2, r6
	umlal	r4, r6, r0, r12
	umull	r2, r3, r0, r5
	adcs	r1, r1, r2
	str	r1, [sp, #60]           @ 4-byte Spill
	umull	r2, r1, r0, r9
	adcs	r2, r3, r2
	str	r2, [sp, #52]           @ 4-byte Spill
	umull	r3, r2, r0, r7
	adcs	r1, r1, r3
	ldr	r3, [sp, #60]           @ 4-byte Reload
	adc	r0, r2, #0
	ldr	r2, [sp, #80]           @ 4-byte Reload
	adds	r2, r2, r8
	ldr	r2, [sp, #108]          @ 4-byte Reload
	adcs	r12, r4, lr
	adcs	lr, r6, r2
	ldr	r2, [sp, #104]          @ 4-byte Reload
	adcs	r8, r3, r2
	ldr	r2, [sp, #100]          @ 4-byte Reload
	ldr	r3, [sp, #52]           @ 4-byte Reload
	adcs	r6, r3, r2
	ldr	r2, [sp, #96]           @ 4-byte Reload
	adcs	r3, r1, r2
	ldr	r1, [sp, #88]           @ 4-byte Reload
	adcs	r2, r0, r1
	ldr	r0, [sp, #64]           @ 4-byte Reload
	adc	r0, r0, #0
	subs	r4, r12, r10
	str	r0, [sp, #108]          @ 4-byte Spill
	ldr	r0, [sp, #112]          @ 4-byte Reload
	sbcs	r0, lr, r0
	sbcs	r1, r8, r11
	mov	r11, r6
	sbcs	r5, r6, r5
	sbcs	r6, r3, r9
	mov	r9, r2
	sbcs	r10, r2, r7
	ldr	r2, [sp, #108]          @ 4-byte Reload
	sbc	r7, r2, #0
	ldr	r2, [sp, #56]           @ 4-byte Reload
	ands	r7, r7, #1
	movne	r4, r12
	movne	r0, lr
	movne	r1, r8
	cmp	r7, #0
	movne	r5, r11
	movne	r6, r3
	movne	r10, r9
	str	r4, [r2]
	str	r0, [r2, #4]
	str	r1, [r2, #8]
	str	r5, [r2, #12]
	str	r6, [r2, #16]
	str	r10, [r2, #20]
	add	sp, sp, #116
	pop	{r4, r5, r6, r7, r8, r9, r10, r11, lr}
	mov	pc, lr
.Lfunc_end83:
	.size	mcl_fp_mont6L, .Lfunc_end83-mcl_fp_mont6L
	.cantunwind
	.fnend

	.globl	mcl_fp_montNF6L
	.align	2
	.type	mcl_fp_montNF6L,%function
mcl_fp_montNF6L:                        @ @mcl_fp_montNF6L
	.fnstart
@ BB#0:
	.save	{r4, r5, r6, r7, r8, r9, r10, r11, lr}
	push	{r4, r5, r6, r7, r8, r9, r10, r11, lr}
	.pad	#88
	sub	sp, sp, #88
	str	r2, [sp, #32]           @ 4-byte Spill
	str	r0, [sp, #28]           @ 4-byte Spill
	ldm	r2, {r4, r12}
	ldr	r5, [r1, #4]
	ldr	r0, [r2, #12]
	ldr	r9, [r2, #8]
	ldr	r2, [r1]
	ldr	r7, [r1, #8]
	ldr	lr, [r3, #8]
	str	r0, [sp, #24]           @ 4-byte Spill
	ldr	r0, [r1, #12]
	str	r5, [sp, #44]           @ 4-byte Spill
	umull	r6, r8, r5, r4
	mov	r10, r5
	umull	r11, r5, r2, r4
	str	r2, [sp, #52]           @ 4-byte Spill
	str	r7, [sp, #48]           @ 4-byte Spill
	str	lr, [sp, #40]           @ 4-byte Spill
	adds	r6, r5, r6
	umull	r2, r6, r7, r4
	adcs	r7, r8, r2
	umlal	r5, r2, r10, r4
	umull	r7, r8, r0, r4
	str	r0, [sp, #36]           @ 4-byte Spill
	adcs	r0, r6, r7
	ldr	r6, [r1, #16]
	str	r0, [sp, #64]           @ 4-byte Spill
	umull	r7, r0, r6, r4
	str	r6, [sp, #72]           @ 4-byte Spill
	ldr	r6, [r3]
	adcs	r7, r8, r7
	str	r7, [sp, #60]           @ 4-byte Spill
	ldr	r7, [r1, #20]
	str	r6, [sp, #80]           @ 4-byte Spill
	umull	r1, r8, r7, r4
	str	r7, [sp, #76]           @ 4-byte Spill
	adcs	r0, r0, r1
	ldr	r1, [r3, #-4]
	str	r0, [sp, #20]           @ 4-byte Spill
	adc	r0, r8, #0
	ldr	r8, [r3, #4]
	str	r0, [sp, #16]           @ 4-byte Spill
	mul	r0, r11, r1
	str	r1, [sp, #56]           @ 4-byte Spill
	umull	r1, r7, r0, r6
	str	r8, [sp, #68]           @ 4-byte Spill
	adds	r1, r1, r11
	str	r7, [sp, #12]           @ 4-byte Spill
	umull	r1, r4, r0, r8
	adcs	r8, r1, r5
	ldr	r1, [r3, #12]
	umull	r5, r11, r0, lr
	str	r4, [sp, #8]            @ 4-byte Spill
	adcs	r6, r5, r2
	str	r1, [sp, #84]           @ 4-byte Spill
	umull	r5, r7, r0, r1
	ldr	r1, [sp, #64]           @ 4-byte Reload
	adcs	lr, r5, r1
	ldr	r1, [r3, #16]
	str	r1, [sp, #64]           @ 4-byte Spill
	umull	r5, r4, r0, r1
	ldr	r1, [sp, #60]           @ 4-byte Reload
	adcs	r5, r5, r1
	ldr	r1, [r3, #20]
	umull	r3, r2, r0, r1
	ldr	r0, [sp, #20]           @ 4-byte Reload
	str	r1, [sp, #60]           @ 4-byte Spill
	ldr	r1, [sp, #16]           @ 4-byte Reload
	adcs	r0, r3, r0
	adc	r3, r1, #0
	ldr	r1, [sp, #12]           @ 4-byte Reload
	adds	r1, r8, r1
	ldr	r8, [sp, #36]           @ 4-byte Reload
	str	r1, [sp, #20]           @ 4-byte Spill
	ldr	r1, [sp, #8]            @ 4-byte Reload
	adcs	r1, r6, r1
	adcs	r11, lr, r11
	str	r1, [sp, #16]           @ 4-byte Spill
	ldr	lr, [sp, #76]           @ 4-byte Reload
	adcs	r1, r5, r7
	ldr	r5, [sp, #72]           @ 4-byte Reload
	adcs	r0, r0, r4
	str	r1, [sp, #12]           @ 4-byte Spill
	str	r0, [sp, #8]            @ 4-byte Spill
	adc	r0, r3, r2
	umull	r3, r6, r12, r10
	str	r0, [sp, #4]            @ 4-byte Spill
	ldr	r0, [sp, #52]           @ 4-byte Reload
	umull	r7, r1, r12, r0
	ldr	r0, [sp, #48]           @ 4-byte Reload
	adds	r3, r1, r3
	umull	r2, r3, r12, r0
	adcs	r6, r6, r2
	umlal	r1, r2, r12, r10
	ldr	r10, [sp, #68]          @ 4-byte Reload
	umull	r6, r0, r12, r8
	adcs	r4, r3, r6
	umull	r6, r3, r12, r5
	adcs	r5, r0, r6
	umull	r6, r0, r12, lr
	ldr	r12, [sp, #60]          @ 4-byte Reload
	adcs	r3, r3, r6
	ldr	r6, [sp, #20]           @ 4-byte Reload
	adc	r0, r0, #0
	adds	r7, r7, r6
	ldr	r6, [sp, #16]           @ 4-byte Reload
	adcs	r1, r1, r6
	ldr	r6, [sp, #12]           @ 4-byte Reload
	adcs	r2, r2, r11
	adcs	r6, r4, r6
	ldr	r4, [sp, #8]            @ 4-byte Reload
	adcs	r11, r5, r4
	ldr	r5, [sp, #4]            @ 4-byte Reload
	adcs	r3, r3, r5
	adc	r0, r0, #0
	str	r3, [sp, #20]           @ 4-byte Spill
	ldr	r3, [sp, #80]           @ 4-byte Reload
	str	r0, [sp, #16]           @ 4-byte Spill
	ldr	r0, [sp, #56]           @ 4-byte Reload
	mul	r4, r7, r0
	umull	r0, r5, r4, r3
	adds	r0, r0, r7
	str	r5, [sp, #12]           @ 4-byte Spill
	umull	r0, r3, r4, r10
	ldr	r5, [sp, #12]           @ 4-byte Reload
	str	r3, [sp, #8]            @ 4-byte Spill
	adcs	r3, r0, r1
	ldr	r0, [sp, #40]           @ 4-byte Reload
	umull	r1, r7, r4, r0
	ldr	r0, [sp, #84]           @ 4-byte Reload
	str	r7, [sp, #4]            @ 4-byte Spill
	adcs	r1, r1, r2
	umull	r2, r7, r4, r0
	str	r7, [sp]                @ 4-byte Spill
	ldr	r7, [sp, #64]           @ 4-byte Reload
	adcs	r2, r2, r6
	umull	r6, r0, r4, r7
	adcs	r6, r6, r11
	umull	r7, r11, r4, r12
	ldr	r4, [sp, #20]           @ 4-byte Reload
	ldr	r12, [sp, #48]          @ 4-byte Reload
	adcs	r4, r7, r4
	ldr	r7, [sp, #16]           @ 4-byte Reload
	adc	r7, r7, #0
	adds	r3, r3, r5
	str	r3, [sp, #20]           @ 4-byte Spill
	ldr	r3, [sp, #8]            @ 4-byte Reload
	adcs	r1, r1, r3
	ldr	r3, [sp, #72]           @ 4-byte Reload
	str	r1, [sp, #16]           @ 4-byte Spill
	ldr	r1, [sp, #4]            @ 4-byte Reload
	adcs	r1, r2, r1
	str	r1, [sp, #12]           @ 4-byte Spill
	ldr	r1, [sp]                @ 4-byte Reload
	adcs	r1, r6, r1
	adcs	r0, r4, r0
	str	r1, [sp, #8]            @ 4-byte Spill
	str	r0, [sp, #4]            @ 4-byte Spill
	adc	r0, r7, r11
	ldr	r11, [sp, #52]          @ 4-byte Reload
	str	r0, [sp]                @ 4-byte Spill
	ldr	r0, [sp, #44]           @ 4-byte Reload
	umull	r6, r1, r9, r11
	umull	r5, r4, r9, r0
	adds	r5, r1, r5
	umull	r2, r5, r9, r12
	adcs	r4, r4, r2
	umlal	r1, r2, r9, r0
	ldr	r0, [sp, #20]           @ 4-byte Reload
	umull	r4, r7, r9, r8
	adcs	r8, r5, r4
	umull	r5, r4, r9, r3
	adcs	r5, r7, r5
	umull	r7, r3, r9, lr
	ldr	lr, [sp, #60]           @ 4-byte Reload
	adcs	r4, r4, r7
	adc	r3, r3, #0
	adds	r7, r6, r0
	ldr	r0, [sp, #16]           @ 4-byte Reload
	adcs	r1, r1, r0
	ldr	r0, [sp, #12]           @ 4-byte Reload
	adcs	r2, r2, r0
	ldr	r0, [sp, #8]            @ 4-byte Reload
	adcs	r6, r8, r0
	ldr	r0, [sp, #4]            @ 4-byte Reload
	ldr	r8, [sp, #56]           @ 4-byte Reload
	adcs	r9, r5, r0
	ldr	r0, [sp]                @ 4-byte Reload
	adcs	r0, r4, r0
	mul	r4, r7, r8
	str	r0, [sp, #20]           @ 4-byte Spill
	adc	r0, r3, #0
	ldr	r3, [sp, #80]           @ 4-byte Reload
	str	r0, [sp, #16]           @ 4-byte Spill
	umull	r0, r5, r4, r3
	adds	r0, r0, r7
	str	r5, [sp, #12]           @ 4-byte Spill
	umull	r0, r3, r4, r10
	ldr	r10, [sp, #40]          @ 4-byte Reload
	ldr	r5, [sp, #12]           @ 4-byte Reload
	str	r3, [sp, #8]            @ 4-byte Spill
	adcs	r0, r0, r1
	umull	r1, r3, r4, r10
	str	r3, [sp, #4]            @ 4-byte Spill
	ldr	r3, [sp, #84]           @ 4-byte Reload
	adcs	r1, r1, r2
	umull	r2, r7, r4, r3
	ldr	r3, [sp, #64]           @ 4-byte Reload
	str	r7, [sp]                @ 4-byte Spill
	adcs	r2, r2, r6
	umull	r6, r7, r4, r3
	adcs	r6, r6, r9
	umull	r3, r9, r4, lr
	ldr	r4, [sp, #20]           @ 4-byte Reload
	adcs	r3, r3, r4
	ldr	r4, [sp, #16]           @ 4-byte Reload
	adc	r4, r4, #0
	adds	r0, r0, r5
	str	r0, [sp, #20]           @ 4-byte Spill
	ldr	r0, [sp, #8]            @ 4-byte Reload
	adcs	r0, r1, r0
	str	r0, [sp, #16]           @ 4-byte Spill
	ldr	r0, [sp, #4]            @ 4-byte Reload
	adcs	r0, r2, r0
	str	r0, [sp, #12]           @ 4-byte Spill
	ldr	r0, [sp]                @ 4-byte Reload
	adcs	r0, r6, r0
	str	r0, [sp, #8]            @ 4-byte Spill
	adcs	r0, r3, r7
	str	r0, [sp, #4]            @ 4-byte Spill
	adc	r0, r4, r9
	ldr	r4, [sp, #44]           @ 4-byte Reload
	str	r0, [sp]                @ 4-byte Spill
	ldr	r0, [sp, #24]           @ 4-byte Reload
	umull	r3, lr, r0, r12
	ldr	r12, [sp, #36]          @ 4-byte Reload
	umull	r9, r2, r0, r11
	umull	r6, r7, r0, r4
	mov	r1, r2
	adds	r2, r2, r6
	mov	r5, r3
	adcs	r2, r7, r3
	umlal	r1, r5, r0, r4
	umull	r2, r3, r0, r12
	adcs	r11, lr, r2
	ldr	lr, [sp, #72]           @ 4-byte Reload
	ldr	r2, [sp, #76]           @ 4-byte Reload
	umull	r4, r6, r0, lr
	adcs	r3, r3, r4
	umull	r4, r7, r0, r2
	ldr	r0, [sp, #20]           @ 4-byte Reload
	ldr	r2, [sp, #16]           @ 4-byte Reload
	adcs	r4, r6, r4
	adc	r6, r7, #0
	adds	r0, r9, r0
	ldr	r9, [sp, #64]           @ 4-byte Reload
	adcs	r1, r1, r2
	ldr	r2, [sp, #12]           @ 4-byte Reload
	adcs	r7, r5, r2
	ldr	r2, [sp, #8]            @ 4-byte Reload
	ldr	r5, [sp, #4]            @ 4-byte Reload
	adcs	r2, r11, r2
	adcs	r11, r3, r5
	ldr	r3, [sp]                @ 4-byte Reload
	adcs	r3, r4, r3
	mul	r4, r0, r8
	ldr	r8, [sp, #80]           @ 4-byte Reload
	str	r3, [sp, #24]           @ 4-byte Spill
	adc	r3, r6, #0
	str	r3, [sp, #20]           @ 4-byte Spill
	umull	r5, r3, r4, r8
	str	r3, [sp, #16]           @ 4-byte Spill
	ldr	r3, [sp, #68]           @ 4-byte Reload
	adds	r0, r5, r0
	umull	r0, r5, r4, r3
	str	r5, [sp, #12]           @ 4-byte Spill
	ldr	r5, [sp, #84]           @ 4-byte Reload
	adcs	r0, r0, r1
	umull	r1, r3, r4, r10
	ldr	r10, [sp, #60]          @ 4-byte Reload
	str	r3, [sp, #8]            @ 4-byte Spill
	adcs	r1, r1, r7
	umull	r7, r3, r4, r5
	adcs	r2, r7, r2
	umull	r7, r5, r4, r9
	str	r3, [sp, #4]            @ 4-byte Spill
	ldr	r3, [sp, #16]           @ 4-byte Reload
	adcs	r7, r7, r11
	umull	r6, r11, r4, r10
	ldr	r4, [sp, #24]           @ 4-byte Reload
	adcs	r4, r6, r4
	ldr	r6, [sp, #20]           @ 4-byte Reload
	adc	r6, r6, #0
	adds	r0, r0, r3
	str	r0, [sp, #24]           @ 4-byte Spill
	ldr	r0, [sp, #12]           @ 4-byte Reload
	adcs	r0, r1, r0
	ldr	r1, [sp, #52]           @ 4-byte Reload
	str	r0, [sp, #20]           @ 4-byte Spill
	ldr	r0, [sp, #8]            @ 4-byte Reload
	adcs	r0, r2, r0
	str	r0, [sp, #16]           @ 4-byte Spill
	ldr	r0, [sp, #4]            @ 4-byte Reload
	adcs	r0, r7, r0
	ldr	r7, [sp, #44]           @ 4-byte Reload
	str	r0, [sp, #12]           @ 4-byte Spill
	adcs	r0, r4, r5
	str	r0, [sp, #8]            @ 4-byte Spill
	adc	r0, r6, r11
	str	r0, [sp, #4]            @ 4-byte Spill
	ldr	r0, [sp, #32]           @ 4-byte Reload
	ldr	r5, [r0, #16]
	umull	r11, r2, r5, r1
	ldr	r1, [sp, #48]           @ 4-byte Reload
	umull	r4, r0, r5, r7
	adds	r4, r2, r4
	umull	r3, r4, r5, r1
	adcs	r0, r0, r3
	umlal	r2, r3, r5, r7
	ldr	r7, [sp, #76]           @ 4-byte Reload
	umull	r0, r6, r5, r12
	adcs	r12, r4, r0
	umull	r4, r1, r5, lr
	adcs	r4, r6, r4
	umull	r6, r0, r5, r7
	ldr	r7, [sp, #24]           @ 4-byte Reload
	adcs	r1, r1, r6
	adc	r0, r0, #0
	adds	r6, r11, r7
	ldr	r7, [sp, #20]           @ 4-byte Reload
	adcs	r2, r2, r7
	ldr	r7, [sp, #16]           @ 4-byte Reload
	adcs	r3, r3, r7
	ldr	r7, [sp, #12]           @ 4-byte Reload
	adcs	r5, r12, r7
	ldr	r7, [sp, #8]            @ 4-byte Reload
	adcs	r7, r4, r7
	str	r7, [sp, #12]           @ 4-byte Spill
	ldr	r7, [sp, #4]            @ 4-byte Reload
	adcs	r1, r1, r7
	adc	r0, r0, #0
	str	r1, [sp, #24]           @ 4-byte Spill
	str	r0, [sp, #20]           @ 4-byte Spill
	ldr	r0, [sp, #56]           @ 4-byte Reload
	mul	r4, r6, r0
	umull	r0, r1, r4, r8
	ldr	r8, [sp, #40]           @ 4-byte Reload
	str	r1, [sp, #16]           @ 4-byte Spill
	ldr	r1, [sp, #68]           @ 4-byte Reload
	adds	r0, r0, r6
	ldr	r7, [sp, #16]           @ 4-byte Reload
	umull	r0, r11, r4, r1
	ldr	r1, [sp, #84]           @ 4-byte Reload
	adcs	r0, r0, r2
	umull	r2, lr, r4, r8
	adcs	r2, r2, r3
	umull	r3, r12, r4, r1
	ldr	r1, [sp, #12]           @ 4-byte Reload
	adcs	r3, r3, r5
	umull	r5, r6, r4, r9
	adcs	r5, r5, r1
	umull	r1, r9, r4, r10
	ldr	r4, [sp, #24]           @ 4-byte Reload
	adcs	r1, r1, r4
	ldr	r4, [sp, #20]           @ 4-byte Reload
	adc	r4, r4, #0
	adds	r0, r0, r7
	ldr	r7, [sp, #44]           @ 4-byte Reload
	str	r0, [sp, #24]           @ 4-byte Spill
	adcs	r0, r2, r11
	adcs	r11, r3, lr
	str	r0, [sp, #20]           @ 4-byte Spill
	adcs	r10, r5, r12
	adcs	r0, r1, r6
	str	r0, [sp, #16]           @ 4-byte Spill
	adc	r0, r4, r9
	str	r0, [sp, #12]           @ 4-byte Spill
	ldr	r0, [sp, #32]           @ 4-byte Reload
	ldr	r5, [r0, #20]
	ldr	r0, [sp, #48]           @ 4-byte Reload
	umull	r6, r1, r5, r0
	ldr	r0, [sp, #52]           @ 4-byte Reload
	mov	r4, r6
	umull	lr, r3, r5, r0
	umull	r12, r0, r5, r7
	mov	r2, r3
	adds	r3, r3, r12
	umlal	r2, r4, r5, r7
	ldr	r7, [sp, #36]           @ 4-byte Reload
	adcs	r0, r0, r6
	umull	r0, r3, r5, r7
	ldr	r7, [sp, #76]           @ 4-byte Reload
	adcs	r12, r1, r0
	ldr	r0, [sp, #72]           @ 4-byte Reload
	umull	r1, r6, r5, r0
	adcs	r1, r3, r1
	umull	r3, r0, r5, r7
	ldr	r5, [sp, #24]           @ 4-byte Reload
	ldr	r7, [sp, #20]           @ 4-byte Reload
	adcs	r3, r6, r3
	adc	r0, r0, #0
	adds	r6, lr, r5
	ldr	r5, [sp, #16]           @ 4-byte Reload
	ldr	lr, [sp, #68]           @ 4-byte Reload
	adcs	r2, r2, r7
	adcs	r7, r4, r11
	adcs	r9, r12, r10
	adcs	r1, r1, r5
	ldr	r5, [sp, #80]           @ 4-byte Reload
	str	r1, [sp, #48]           @ 4-byte Spill
	ldr	r1, [sp, #12]           @ 4-byte Reload
	adcs	r1, r3, r1
	adc	r0, r0, #0
	str	r1, [sp, #76]           @ 4-byte Spill
	str	r0, [sp, #72]           @ 4-byte Spill
	ldr	r0, [sp, #56]           @ 4-byte Reload
	mul	r4, r6, r0
	umull	r0, r1, r4, r5
	umull	r3, r11, r4, lr
	str	r1, [sp, #56]           @ 4-byte Spill
	ldr	r1, [sp, #84]           @ 4-byte Reload
	adds	r0, r0, r6
	umull	r6, r0, r4, r8
	adcs	r12, r3, r2
	ldr	r2, [sp, #60]           @ 4-byte Reload
	str	r0, [sp, #52]           @ 4-byte Spill
	adcs	r10, r6, r7
	umull	r3, r0, r4, r1
	adcs	r9, r3, r9
	ldr	r3, [sp, #64]           @ 4-byte Reload
	str	r0, [sp, #44]           @ 4-byte Spill
	umull	r7, r0, r4, r3
	str	r0, [sp, #36]           @ 4-byte Spill
	ldr	r0, [sp, #48]           @ 4-byte Reload
	adcs	r7, r7, r0
	umull	r6, r0, r4, r2
	ldr	r4, [sp, #76]           @ 4-byte Reload
	str	r0, [sp, #48]           @ 4-byte Spill
	ldr	r0, [sp, #56]           @ 4-byte Reload
	adcs	r6, r6, r4
	ldr	r4, [sp, #72]           @ 4-byte Reload
	adc	r4, r4, #0
	adds	r12, r12, r0
	ldr	r0, [sp, #52]           @ 4-byte Reload
	adcs	r11, r10, r11
	adcs	r9, r9, r0
	ldr	r0, [sp, #44]           @ 4-byte Reload
	adcs	r10, r7, r0
	ldr	r0, [sp, #36]           @ 4-byte Reload
	adcs	r7, r6, r0
	ldr	r0, [sp, #48]           @ 4-byte Reload
	adc	r0, r4, r0
	subs	r5, r12, r5
	sbcs	r4, r11, lr
	mov	lr, r0
	sbcs	r6, r9, r8
	sbcs	r1, r10, r1
	sbcs	r8, r7, r3
	sbc	r3, r0, r2
	ldr	r2, [sp, #28]           @ 4-byte Reload
	asr	r0, r3, #31
	cmp	r0, #0
	movlt	r5, r12
	movlt	r4, r11
	movlt	r6, r9
	cmp	r0, #0
	movlt	r1, r10
	movlt	r8, r7
	movlt	r3, lr
	str	r5, [r2]
	str	r4, [r2, #4]
	str	r6, [r2, #8]
	str	r1, [r2, #12]
	str	r8, [r2, #16]
	str	r3, [r2, #20]
	add	sp, sp, #88
	pop	{r4, r5, r6, r7, r8, r9, r10, r11, lr}
	mov	pc, lr
.Lfunc_end84:
	.size	mcl_fp_montNF6L, .Lfunc_end84-mcl_fp_montNF6L
	.cantunwind
	.fnend

	.globl	mcl_fp_montRed6L
	.align	2
	.type	mcl_fp_montRed6L,%function
mcl_fp_montRed6L:                       @ @mcl_fp_montRed6L
	.fnstart
@ BB#0:
	.save	{r4, r5, r6, r7, r8, r9, r10, r11, lr}
	push	{r4, r5, r6, r7, r8, r9, r10, r11, lr}
	.pad	#100
	sub	sp, sp, #100
	ldr	r6, [r1, #4]
	ldr	r10, [r2, #-4]
	ldr	r9, [r1]
	ldr	r3, [r2, #8]
	str	r0, [sp, #72]           @ 4-byte Spill
	ldr	r0, [r2]
	ldr	r8, [r2, #4]
	str	r6, [sp, #68]           @ 4-byte Spill
	ldr	r6, [r1, #8]
	mul	r4, r9, r10
	str	r3, [sp, #80]           @ 4-byte Spill
	str	r0, [sp, #76]           @ 4-byte Spill
	str	r10, [sp, #92]          @ 4-byte Spill
	umull	r12, r7, r4, r3
	str	r7, [sp, #52]           @ 4-byte Spill
	umull	r7, r3, r4, r0
	mov	lr, r12
	str	r7, [sp, #56]           @ 4-byte Spill
	mov	r0, r3
	str	r6, [sp, #64]           @ 4-byte Spill
	ldr	r6, [r1, #12]
	umlal	r0, lr, r4, r8
	str	r6, [sp, #60]           @ 4-byte Spill
	ldr	r6, [r2, #20]
	umull	r5, r7, r4, r6
	str	r6, [sp, #84]           @ 4-byte Spill
	ldr	r6, [r2, #16]
	ldr	r2, [r2, #12]
	str	r5, [sp, #44]           @ 4-byte Spill
	str	r7, [sp, #48]           @ 4-byte Spill
	umull	r5, r7, r4, r6
	str	r6, [sp, #96]           @ 4-byte Spill
	str	r2, [sp, #88]           @ 4-byte Spill
	str	r7, [sp, #40]           @ 4-byte Spill
	umull	r6, r7, r4, r2
	umull	r11, r2, r4, r8
	adds	r3, r3, r11
	adcs	r2, r2, r12
	ldr	r3, [sp, #40]           @ 4-byte Reload
	ldr	r2, [sp, #52]           @ 4-byte Reload
	adcs	r12, r2, r6
	ldr	r2, [sp, #44]           @ 4-byte Reload
	adcs	r11, r7, r5
	adcs	r2, r3, r2
	str	r2, [sp, #52]           @ 4-byte Spill
	ldr	r2, [sp, #48]           @ 4-byte Reload
	adc	r2, r2, #0
	str	r2, [sp, #48]           @ 4-byte Spill
	ldr	r2, [sp, #56]           @ 4-byte Reload
	adds	r6, r9, r2
	ldr	r2, [sp, #68]           @ 4-byte Reload
	add	r9, r1, #16
	adcs	r0, r2, r0
	mul	r6, r0, r10
	ldr	r10, [sp, #80]          @ 4-byte Reload
	str	r0, [sp, #68]           @ 4-byte Spill
	umull	r3, r0, r6, r10
	str	r0, [sp, #56]           @ 4-byte Spill
	ldr	r0, [r1, #32]
	str	r0, [sp, #40]           @ 4-byte Spill
	ldr	r0, [r1, #36]
	str	r0, [sp, #36]           @ 4-byte Spill
	ldr	r0, [r1, #40]
	str	r0, [sp, #32]           @ 4-byte Spill
	ldr	r0, [r1, #44]
	str	r0, [sp, #28]           @ 4-byte Spill
	ldm	r9, {r2, r4, r7, r9}
	ldr	r5, [sp, #76]           @ 4-byte Reload
	umull	r0, r1, r6, r5
	str	r0, [sp, #20]           @ 4-byte Spill
	ldr	r0, [sp, #64]           @ 4-byte Reload
	adcs	r0, r0, lr
	ldr	lr, [sp, #84]           @ 4-byte Reload
	str	r0, [sp, #16]           @ 4-byte Spill
	ldr	r0, [sp, #60]           @ 4-byte Reload
	adcs	r0, r0, r12
	mov	r12, r3
	adcs	r2, r2, r11
	str	r0, [sp, #64]           @ 4-byte Spill
	mov	r0, r1
	str	r2, [sp, #60]           @ 4-byte Spill
	ldr	r2, [sp, #52]           @ 4-byte Reload
	umlal	r0, r12, r6, r8
	adcs	r2, r4, r2
	ldr	r4, [sp, #96]           @ 4-byte Reload
	str	r2, [sp, #52]           @ 4-byte Spill
	ldr	r2, [sp, #48]           @ 4-byte Reload
	adcs	r2, r7, r2
	str	r2, [sp, #48]           @ 4-byte Spill
	adcs	r2, r9, #0
	umull	r9, r11, r6, lr
	str	r2, [sp, #44]           @ 4-byte Spill
	ldr	r2, [sp, #40]           @ 4-byte Reload
	adcs	r2, r2, #0
	str	r2, [sp, #40]           @ 4-byte Spill
	ldr	r2, [sp, #36]           @ 4-byte Reload
	adcs	r2, r2, #0
	str	r2, [sp, #36]           @ 4-byte Spill
	ldr	r2, [sp, #32]           @ 4-byte Reload
	adcs	r2, r2, #0
	str	r2, [sp, #32]           @ 4-byte Spill
	ldr	r2, [sp, #28]           @ 4-byte Reload
	adcs	r2, r2, #0
	str	r2, [sp, #28]           @ 4-byte Spill
	mov	r2, #0
	adc	r2, r2, #0
	str	r2, [sp, #24]           @ 4-byte Spill
	umull	r7, r2, r6, r8
	adds	r1, r1, r7
	adcs	r2, r2, r3
	ldr	r3, [sp, #88]           @ 4-byte Reload
	umull	r1, r7, r6, r4
	umull	r2, r4, r6, r3
	ldr	r6, [sp, #56]           @ 4-byte Reload
	adcs	r2, r6, r2
	adcs	r1, r4, r1
	ldr	r4, [sp, #20]           @ 4-byte Reload
	str	r2, [sp, #56]           @ 4-byte Spill
	str	r1, [sp, #4]            @ 4-byte Spill
	adcs	r1, r7, r9
	ldr	r2, [sp, #56]           @ 4-byte Reload
	str	r1, [sp]                @ 4-byte Spill
	ldr	r1, [sp, #68]           @ 4-byte Reload
	adc	r7, r11, #0
	adds	r6, r4, r1
	ldr	r1, [sp, #16]           @ 4-byte Reload
	adcs	r1, r0, r1
	ldr	r0, [sp, #92]           @ 4-byte Reload
	str	r1, [sp, #20]           @ 4-byte Spill
	mul	r6, r1, r0
	umull	r9, r0, r6, r10
	str	r0, [sp, #8]            @ 4-byte Spill
	umull	r0, r1, r6, r5
	ldr	r5, [sp, #60]           @ 4-byte Reload
	mov	r4, r9
	str	r0, [sp, #16]           @ 4-byte Spill
	ldr	r0, [sp, #64]           @ 4-byte Reload
	adcs	r0, r12, r0
	adcs	r5, r2, r5
	ldr	r2, [sp, #4]            @ 4-byte Reload
	str	r0, [sp, #12]           @ 4-byte Spill
	mov	r0, r1
	str	r5, [sp, #68]           @ 4-byte Spill
	ldr	r5, [sp, #52]           @ 4-byte Reload
	umlal	r0, r4, r6, r8
	adcs	r2, r2, r5
	ldr	r5, [sp]                @ 4-byte Reload
	str	r2, [sp, #64]           @ 4-byte Spill
	ldr	r2, [sp, #48]           @ 4-byte Reload
	adcs	r2, r5, r2
	umull	r5, r10, r6, lr
	str	r2, [sp, #60]           @ 4-byte Spill
	ldr	r2, [sp, #44]           @ 4-byte Reload
	adcs	r2, r7, r2
	umull	r7, r12, r6, r8
	str	r2, [sp, #56]           @ 4-byte Spill
	ldr	r2, [sp, #40]           @ 4-byte Reload
	adcs	r2, r2, #0
	str	r2, [sp, #52]           @ 4-byte Spill
	ldr	r2, [sp, #36]           @ 4-byte Reload
	adcs	r2, r2, #0
	str	r2, [sp, #48]           @ 4-byte Spill
	ldr	r2, [sp, #32]           @ 4-byte Reload
	adcs	r2, r2, #0
	str	r2, [sp, #44]           @ 4-byte Spill
	ldr	r2, [sp, #28]           @ 4-byte Reload
	adcs	r2, r2, #0
	str	r2, [sp, #40]           @ 4-byte Spill
	ldr	r2, [sp, #24]           @ 4-byte Reload
	adc	r2, r2, #0
	adds	r1, r1, r7
	ldr	r1, [sp, #96]           @ 4-byte Reload
	str	r2, [sp, #36]           @ 4-byte Spill
	umull	r7, r2, r6, r3
	ldr	r3, [sp, #8]            @ 4-byte Reload
	umull	r11, lr, r6, r1
	adcs	r6, r12, r9
	adcs	r3, r3, r7
	adcs	r12, r2, r11
	str	r3, [sp, #8]            @ 4-byte Spill
	ldr	r3, [sp, #16]           @ 4-byte Reload
	adcs	r2, lr, r5
	ldr	r5, [sp, #80]           @ 4-byte Reload
	ldr	lr, [sp, #76]           @ 4-byte Reload
	str	r2, [sp, #4]            @ 4-byte Spill
	ldr	r2, [sp, #20]           @ 4-byte Reload
	adc	r9, r10, #0
	adds	r6, r3, r2
	ldr	r2, [sp, #12]           @ 4-byte Reload
	ldr	r3, [sp, #92]           @ 4-byte Reload
	adcs	r0, r0, r2
	mul	r6, r0, r3
	str	r0, [sp, #32]           @ 4-byte Spill
	umull	r11, r0, r6, r5
	str	r0, [sp, #24]           @ 4-byte Spill
	umull	r0, r7, r6, lr
	mov	r10, r11
	str	r0, [sp, #28]           @ 4-byte Spill
	ldr	r0, [sp, #68]           @ 4-byte Reload
	mov	r2, r7
	umlal	r2, r10, r6, r8
	adcs	r0, r4, r0
	ldr	r4, [sp, #8]            @ 4-byte Reload
	str	r0, [sp, #20]           @ 4-byte Spill
	ldr	r0, [sp, #64]           @ 4-byte Reload
	adcs	r0, r4, r0
	ldr	r4, [sp, #4]            @ 4-byte Reload
	str	r0, [sp, #68]           @ 4-byte Spill
	ldr	r0, [sp, #60]           @ 4-byte Reload
	adcs	r0, r12, r0
	ldr	r12, [sp, #84]          @ 4-byte Reload
	str	r0, [sp, #64]           @ 4-byte Spill
	ldr	r0, [sp, #56]           @ 4-byte Reload
	adcs	r0, r4, r0
	str	r0, [sp, #60]           @ 4-byte Spill
	ldr	r0, [sp, #52]           @ 4-byte Reload
	adcs	r0, r9, r0
	str	r0, [sp, #56]           @ 4-byte Spill
	ldr	r0, [sp, #48]           @ 4-byte Reload
	adcs	r0, r0, #0
	str	r0, [sp, #52]           @ 4-byte Spill
	ldr	r0, [sp, #44]           @ 4-byte Reload
	adcs	r0, r0, #0
	str	r0, [sp, #48]           @ 4-byte Spill
	ldr	r0, [sp, #40]           @ 4-byte Reload
	adcs	r0, r0, #0
	str	r0, [sp, #44]           @ 4-byte Spill
	ldr	r0, [sp, #36]           @ 4-byte Reload
	adc	r0, r0, #0
	str	r0, [sp, #40]           @ 4-byte Spill
	umull	r4, r0, r6, r12
	str	r4, [sp, #12]           @ 4-byte Spill
	str	r0, [sp, #36]           @ 4-byte Spill
	umull	r4, r0, r6, r1
	ldr	r1, [sp, #88]           @ 4-byte Reload
	str	r0, [sp, #8]            @ 4-byte Spill
	umull	r9, r0, r6, r8
	adds	r7, r7, r9
	adcs	r0, r0, r11
	ldr	r0, [sp, #24]           @ 4-byte Reload
	umull	r7, r9, r6, r1
	ldr	r6, [sp, #28]           @ 4-byte Reload
	adcs	r0, r0, r7
	str	r0, [sp, #24]           @ 4-byte Spill
	adcs	r0, r9, r4
	ldr	r4, [sp, #8]            @ 4-byte Reload
	str	r0, [sp, #16]           @ 4-byte Spill
	ldr	r0, [sp, #12]           @ 4-byte Reload
	adcs	r7, r4, r0
	ldr	r0, [sp, #36]           @ 4-byte Reload
	ldr	r4, [sp, #32]           @ 4-byte Reload
	adc	r11, r0, #0
	adds	r4, r6, r4
	ldr	r0, [sp, #24]           @ 4-byte Reload
	ldr	r4, [sp, #20]           @ 4-byte Reload
	adcs	r2, r2, r4
	mul	r4, r2, r3
	str	r2, [sp, #36]           @ 4-byte Spill
	umull	r9, r2, r4, r5
	ldr	r5, [sp, #68]           @ 4-byte Reload
	str	r2, [sp, #28]           @ 4-byte Spill
	umull	r3, r2, r4, lr
	mov	r6, r2
	str	r3, [sp, #32]           @ 4-byte Spill
	mov	r3, r9
	umlal	r6, r3, r4, r8
	adcs	r5, r10, r5
	str	r5, [sp, #68]           @ 4-byte Spill
	ldr	r5, [sp, #64]           @ 4-byte Reload
	adcs	r5, r0, r5
	ldr	r0, [sp, #16]           @ 4-byte Reload
	str	r5, [sp, #64]           @ 4-byte Spill
	ldr	r5, [sp, #60]           @ 4-byte Reload
	adcs	r0, r0, r5
	str	r0, [sp, #60]           @ 4-byte Spill
	ldr	r0, [sp, #56]           @ 4-byte Reload
	adcs	r0, r7, r0
	str	r0, [sp, #56]           @ 4-byte Spill
	ldr	r0, [sp, #52]           @ 4-byte Reload
	adcs	r0, r11, r0
	str	r0, [sp, #52]           @ 4-byte Spill
	ldr	r0, [sp, #48]           @ 4-byte Reload
	adcs	r0, r0, #0
	str	r0, [sp, #48]           @ 4-byte Spill
	ldr	r0, [sp, #44]           @ 4-byte Reload
	adcs	r0, r0, #0
	str	r0, [sp, #44]           @ 4-byte Spill
	ldr	r0, [sp, #40]           @ 4-byte Reload
	adc	r0, r0, #0
	str	r0, [sp, #40]           @ 4-byte Spill
	umull	r7, r0, r4, r12
	mov	r12, r1
	str	r0, [sp, #24]           @ 4-byte Spill
	umull	r11, r0, r4, r8
	str	r7, [sp, #20]           @ 4-byte Spill
	ldr	r7, [sp, #96]           @ 4-byte Reload
	umull	r1, r5, r4, r12
	adds	r2, r2, r11
	adcs	r0, r0, r9
	ldr	r2, [sp, #20]           @ 4-byte Reload
	ldr	r0, [sp, #28]           @ 4-byte Reload
	umull	lr, r10, r4, r7
	ldr	r4, [sp, #36]           @ 4-byte Reload
	adcs	r0, r0, r1
	adcs	r1, r5, lr
	ldr	r5, [sp, #24]           @ 4-byte Reload
	adcs	r2, r10, r2
	adc	lr, r5, #0
	ldr	r5, [sp, #32]           @ 4-byte Reload
	adds	r4, r5, r4
	ldr	r5, [sp, #76]           @ 4-byte Reload
	ldr	r4, [sp, #68]           @ 4-byte Reload
	adcs	r9, r6, r4
	ldr	r4, [sp, #64]           @ 4-byte Reload
	ldr	r6, [sp, #80]           @ 4-byte Reload
	adcs	r3, r3, r4
	str	r3, [sp, #68]           @ 4-byte Spill
	ldr	r3, [sp, #60]           @ 4-byte Reload
	adcs	r0, r0, r3
	str	r0, [sp, #64]           @ 4-byte Spill
	ldr	r0, [sp, #56]           @ 4-byte Reload
	adcs	r0, r1, r0
	ldr	r1, [sp, #92]           @ 4-byte Reload
	str	r0, [sp, #60]           @ 4-byte Spill
	ldr	r0, [sp, #52]           @ 4-byte Reload
	adcs	r0, r2, r0
	str	r0, [sp, #56]           @ 4-byte Spill
	ldr	r0, [sp, #48]           @ 4-byte Reload
	adcs	r0, lr, r0
	str	r0, [sp, #52]           @ 4-byte Spill
	ldr	r0, [sp, #44]           @ 4-byte Reload
	adcs	r0, r0, #0
	str	r0, [sp, #48]           @ 4-byte Spill
	ldr	r0, [sp, #40]           @ 4-byte Reload
	adc	r0, r0, #0
	str	r0, [sp, #44]           @ 4-byte Spill
	mul	r0, r9, r1
	umull	r2, r4, r0, r5
	umull	r1, r3, r0, r8
	adds	r1, r4, r1
	str	r2, [sp, #92]           @ 4-byte Spill
	umull	r1, r2, r0, r6
	adcs	r3, r3, r1
	umlal	r4, r1, r0, r8
	umull	r3, lr, r0, r12
	adcs	r10, r2, r3
	umull	r3, r2, r0, r7
	adcs	r11, lr, r3
	ldr	lr, [sp, #84]           @ 4-byte Reload
	umull	r7, r3, r0, lr
	adcs	r2, r2, r7
	ldr	r7, [sp, #64]           @ 4-byte Reload
	adc	r0, r3, #0
	ldr	r3, [sp, #92]           @ 4-byte Reload
	adds	r3, r3, r9
	ldr	r3, [sp, #68]           @ 4-byte Reload
	adcs	r3, r4, r3
	ldr	r4, [sp, #88]           @ 4-byte Reload
	adcs	r12, r1, r7
	ldr	r1, [sp, #60]           @ 4-byte Reload
	adcs	r10, r10, r1
	ldr	r1, [sp, #56]           @ 4-byte Reload
	adcs	r9, r11, r1
	ldr	r1, [sp, #52]           @ 4-byte Reload
	adcs	r7, r2, r1
	ldr	r1, [sp, #48]           @ 4-byte Reload
	adcs	r1, r0, r1
	ldr	r0, [sp, #44]           @ 4-byte Reload
	adc	r11, r0, #0
	subs	r0, r3, r5
	sbcs	r5, r12, r8
	mov	r8, r7
	sbcs	r2, r10, r6
	ldr	r6, [sp, #96]           @ 4-byte Reload
	sbcs	r4, r9, r4
	sbcs	r6, r7, r6
	sbcs	r7, r1, lr
	mov	lr, r1
	sbc	r1, r11, #0
	ands	r1, r1, #1
	movne	r0, r3
	ldr	r3, [sp, #72]           @ 4-byte Reload
	movne	r5, r12
	movne	r2, r10
	cmp	r1, #0
	movne	r4, r9
	movne	r6, r8
	movne	r7, lr
	str	r0, [r3]
	str	r5, [r3, #4]
	str	r2, [r3, #8]
	str	r4, [r3, #12]
	str	r6, [r3, #16]
	str	r7, [r3, #20]
	add	sp, sp, #100
	pop	{r4, r5, r6, r7, r8, r9, r10, r11, lr}
	mov	pc, lr
.Lfunc_end85:
	.size	mcl_fp_montRed6L, .Lfunc_end85-mcl_fp_montRed6L
	.cantunwind
	.fnend

	.globl	mcl_fp_addPre6L
	.align	2
	.type	mcl_fp_addPre6L,%function
mcl_fp_addPre6L:                        @ @mcl_fp_addPre6L
	.fnstart
@ BB#0:
	.save	{r4, r5, r6, r7, r8, r9, r10, lr}
	push	{r4, r5, r6, r7, r8, r9, r10, lr}
	ldm	r1, {r9, r12, lr}
	ldr	r10, [r1, #12]
	ldr	r5, [r1, #16]
	ldr	r8, [r1, #20]
	ldm	r2, {r6, r7}
	add	r4, r2, #8
	ldm	r4, {r1, r3, r4}
	ldr	r2, [r2, #20]
	adds	r6, r6, r9
	adcs	r7, r7, r12
	add	r12, r0, #8
	adcs	r1, r1, lr
	stm	r0, {r6, r7}
	adcs	r3, r3, r10
	adcs	r5, r4, r5
	adcs	r2, r2, r8
	stm	r12, {r1, r3, r5}
	str	r2, [r0, #20]
	mov	r0, #0
	adc	r0, r0, #0
	pop	{r4, r5, r6, r7, r8, r9, r10, lr}
	mov	pc, lr
.Lfunc_end86:
	.size	mcl_fp_addPre6L, .Lfunc_end86-mcl_fp_addPre6L
	.cantunwind
	.fnend

	.globl	mcl_fp_subPre6L
	.align	2
	.type	mcl_fp_subPre6L,%function
mcl_fp_subPre6L:                        @ @mcl_fp_subPre6L
	.fnstart
@ BB#0:
	.save	{r4, r5, r6, r7, r8, r9, r10, lr}
	push	{r4, r5, r6, r7, r8, r9, r10, lr}
	ldm	r2, {r9, r12, lr}
	ldr	r10, [r2, #12]
	ldr	r5, [r2, #16]
	ldr	r8, [r2, #20]
	ldm	r1, {r6, r7}
	add	r4, r1, #8
	ldm	r4, {r2, r3, r4}
	ldr	r1, [r1, #20]
	subs	r6, r6, r9
	sbcs	r7, r7, r12
	add	r12, r0, #8
	sbcs	r2, r2, lr
	stm	r0, {r6, r7}
	sbcs	r3, r3, r10
	sbcs	r5, r4, r5
	sbcs	r1, r1, r8
	stm	r12, {r2, r3, r5}
	str	r1, [r0, #20]
	mov	r0, #0
	sbc	r0, r0, #0
	and	r0, r0, #1
	pop	{r4, r5, r6, r7, r8, r9, r10, lr}
	mov	pc, lr
.Lfunc_end87:
	.size	mcl_fp_subPre6L, .Lfunc_end87-mcl_fp_subPre6L
	.cantunwind
	.fnend

	.globl	mcl_fp_shr1_6L
	.align	2
	.type	mcl_fp_shr1_6L,%function
mcl_fp_shr1_6L:                         @ @mcl_fp_shr1_6L
	.fnstart
@ BB#0:
	.save	{r4, r5, r6, lr}
	push	{r4, r5, r6, lr}
	ldr	r3, [r1, #4]
	ldr	r12, [r1]
	ldr	lr, [r1, #12]
	ldr	r2, [r1, #8]
	ldr	r4, [r1, #16]
	ldr	r1, [r1, #20]
	lsrs	r5, r3, #1
	lsr	r3, r3, #1
	rrx	r12, r12
	lsrs	r5, lr, #1
	orr	r6, r3, r2, lsl #31
	lsr	r5, lr, #1
	rrx	r2, r2
	lsrs	r3, r1, #1
	lsr	r1, r1, #1
	str	r12, [r0]
	str	r6, [r0, #4]
	orr	r5, r5, r4, lsl #31
	rrx	r3, r4
	str	r2, [r0, #8]
	str	r5, [r0, #12]
	str	r3, [r0, #16]
	str	r1, [r0, #20]
	pop	{r4, r5, r6, lr}
	mov	pc, lr
.Lfunc_end88:
	.size	mcl_fp_shr1_6L, .Lfunc_end88-mcl_fp_shr1_6L
	.cantunwind
	.fnend

	.globl	mcl_fp_add6L
	.align	2
	.type	mcl_fp_add6L,%function
mcl_fp_add6L:                           @ @mcl_fp_add6L
	.fnstart
@ BB#0:
	.save	{r4, r5, r6, r7, r8, r9, r10, r11, lr}
	push	{r4, r5, r6, r7, r8, r9, r10, r11, lr}
	ldm	r1, {r9, r12, lr}
	ldr	r7, [r2]
	ldr	r10, [r1, #12]
	ldr	r11, [r1, #16]
	ldr	r8, [r1, #20]
	ldmib	r2, {r1, r4, r5, r6}
	ldr	r2, [r2, #20]
	adds	r7, r7, r9
	adcs	r12, r1, r12
	add	r1, r0, #8
	adcs	r4, r4, lr
	stm	r0, {r7, r12}
	adcs	r5, r5, r10
	adcs	r6, r6, r11
	stm	r1, {r4, r5, r6}
	adcs	r2, r2, r8
	mov	r1, #0
	str	r2, [r0, #20]
	adc	r9, r1, #0
	ldm	r3, {r1, lr}
	ldr	r10, [r3, #8]
	ldr	r11, [r3, #12]
	ldr	r8, [r3, #16]
	ldr	r3, [r3, #20]
	subs	r7, r7, r1
	sbcs	r1, r12, lr
	sbcs	r10, r4, r10
	sbcs	r12, r5, r11
	sbcs	lr, r6, r8
	sbcs	r4, r2, r3
	sbc	r2, r9, #0
	tst	r2, #1
	streq	r7, [r0]
	stmibeq	r0, {r1, r10, r12, lr}
	streq	r4, [r0, #20]
	pop	{r4, r5, r6, r7, r8, r9, r10, r11, lr}
	mov	pc, lr
.Lfunc_end89:
	.size	mcl_fp_add6L, .Lfunc_end89-mcl_fp_add6L
	.cantunwind
	.fnend

	.globl	mcl_fp_addNF6L
	.align	2
	.type	mcl_fp_addNF6L,%function
mcl_fp_addNF6L:                         @ @mcl_fp_addNF6L
	.fnstart
@ BB#0:
	.save	{r4, r5, r6, r7, r8, r9, r10, r11, lr}
	push	{r4, r5, r6, r7, r8, r9, r10, r11, lr}
	add	r11, r1, #8
	ldm	r1, {r12, lr}
	ldm	r11, {r9, r10, r11}
	ldr	r7, [r2]
	ldr	r8, [r1, #20]
	ldmib	r2, {r1, r4, r5, r6}
	ldr	r2, [r2, #20]
	adds	r7, r7, r12
	adcs	r1, r1, lr
	adcs	r4, r4, r9
	adcs	r9, r5, r10
	adcs	lr, r6, r11
	add	r11, r3, #8
	adc	r12, r2, r8
	ldm	r3, {r2, r6}
	ldm	r11, {r5, r8, r10, r11}
	subs	r2, r7, r2
	sbcs	r6, r1, r6
	sbcs	r5, r4, r5
	sbcs	r3, r9, r8
	sbcs	r8, lr, r10
	sbc	r10, r12, r11
	asr	r11, r10, #31
	cmp	r11, #0
	movlt	r2, r7
	movlt	r6, r1
	movlt	r5, r4
	cmp	r11, #0
	movlt	r3, r9
	movlt	r8, lr
	movlt	r10, r12
	str	r2, [r0]
	str	r6, [r0, #4]
	str	r5, [r0, #8]
	str	r3, [r0, #12]
	str	r8, [r0, #16]
	str	r10, [r0, #20]
	pop	{r4, r5, r6, r7, r8, r9, r10, r11, lr}
	mov	pc, lr
.Lfunc_end90:
	.size	mcl_fp_addNF6L, .Lfunc_end90-mcl_fp_addNF6L
	.cantunwind
	.fnend

	.globl	mcl_fp_sub6L
	.align	2
	.type	mcl_fp_sub6L,%function
mcl_fp_sub6L:                           @ @mcl_fp_sub6L
	.fnstart
@ BB#0:
	.save	{r4, r5, r6, r7, r8, r9, r10, r11, lr}
	push	{r4, r5, r6, r7, r8, r9, r10, r11, lr}
	ldr	r9, [r2]
	ldmib	r2, {r8, r12, lr}
	ldr	r10, [r2, #16]
	ldr	r11, [r2, #20]
	ldm	r1, {r2, r4, r5, r6, r7}
	ldr	r1, [r1, #20]
	subs	r9, r2, r9
	sbcs	r2, r4, r8
	str	r9, [r0]
	sbcs	r12, r5, r12
	sbcs	lr, r6, lr
	sbcs	r4, r7, r10
	stmib	r0, {r2, r12, lr}
	sbcs	r5, r1, r11
	mov	r1, #0
	str	r4, [r0, #16]
	sbc	r1, r1, #0
	str	r5, [r0, #20]
	tst	r1, #1
	popeq	{r4, r5, r6, r7, r8, r9, r10, r11, lr}
	moveq	pc, lr
	ldm	r3, {r1, r6, r7, r8, r10}
	ldr	r3, [r3, #20]
	adds	r1, r1, r9
	adcs	r2, r6, r2
	adcs	r7, r7, r12
	adcs	r6, r8, lr
	stm	r0, {r1, r2, r7}
	adcs	r4, r10, r4
	str	r6, [r0, #12]
	adc	r3, r3, r5
	str	r4, [r0, #16]
	str	r3, [r0, #20]
	pop	{r4, r5, r6, r7, r8, r9, r10, r11, lr}
	mov	pc, lr
.Lfunc_end91:
	.size	mcl_fp_sub6L, .Lfunc_end91-mcl_fp_sub6L
	.cantunwind
	.fnend

	.globl	mcl_fp_subNF6L
	.align	2
	.type	mcl_fp_subNF6L,%function
mcl_fp_subNF6L:                         @ @mcl_fp_subNF6L
	.fnstart
@ BB#0:
	.save	{r4, r5, r6, r7, r8, r9, r10, r11, lr}
	push	{r4, r5, r6, r7, r8, r9, r10, r11, lr}
	add	r11, r2, #8
	ldm	r2, {r12, lr}
	ldm	r11, {r9, r10, r11}
	ldr	r7, [r1]
	ldr	r8, [r2, #20]
	ldmib	r1, {r2, r4, r5, r6}
	ldr	r1, [r1, #20]
	subs	r7, r7, r12
	sbcs	r2, r2, lr
	sbcs	r9, r4, r9
	sbcs	lr, r5, r10
	ldr	r5, [r3, #4]
	sbcs	r12, r6, r11
	ldr	r6, [r3]
	add	r11, r3, #8
	sbc	r1, r1, r8
	ldm	r11, {r4, r8, r10, r11}
	adds	r6, r7, r6
	adcs	r5, r2, r5
	adcs	r4, r9, r4
	adcs	r3, lr, r8
	adcs	r8, r12, r10
	adc	r10, r1, r11
	asr	r11, r1, #31
	cmp	r11, #0
	movge	r6, r7
	movge	r5, r2
	movge	r4, r9
	cmp	r11, #0
	movge	r3, lr
	movge	r8, r12
	movge	r10, r1
	str	r6, [r0]
	str	r5, [r0, #4]
	str	r4, [r0, #8]
	str	r3, [r0, #12]
	str	r8, [r0, #16]
	str	r10, [r0, #20]
	pop	{r4, r5, r6, r7, r8, r9, r10, r11, lr}
	mov	pc, lr
.Lfunc_end92:
	.size	mcl_fp_subNF6L, .Lfunc_end92-mcl_fp_subNF6L
	.cantunwind
	.fnend

	.globl	mcl_fpDbl_add6L
	.align	2
	.type	mcl_fpDbl_add6L,%function
mcl_fpDbl_add6L:                        @ @mcl_fpDbl_add6L
	.fnstart
@ BB#0:
	.save	{r4, r5, r6, r7, r8, r9, r10, r11, lr}
	push	{r4, r5, r6, r7, r8, r9, r10, r11, lr}
	.pad	#32
	sub	sp, sp, #32
	ldm	r1, {r12, lr}
	ldr	r8, [r1, #8]
	ldr	r10, [r1, #12]
	ldmib	r2, {r6, r7}
	ldr	r5, [r2, #16]
	ldr	r11, [r2]
	ldr	r4, [r2, #12]
	str	r5, [sp]                @ 4-byte Spill
	ldr	r5, [r2, #20]
	adds	r9, r11, r12
	add	r11, r1, #32
	adcs	r6, r6, lr
	add	lr, r1, #16
	adcs	r7, r7, r8
	str	r5, [sp, #4]            @ 4-byte Spill
	ldr	r5, [r2, #24]
	str	r5, [sp, #16]           @ 4-byte Spill
	ldr	r5, [r2, #28]
	str	r5, [sp, #28]           @ 4-byte Spill
	ldr	r5, [r2, #32]
	str	r5, [sp, #8]            @ 4-byte Spill
	ldr	r5, [r2, #36]
	str	r5, [sp, #12]           @ 4-byte Spill
	ldr	r5, [r2, #40]
	ldr	r2, [r2, #44]
	str	r5, [sp, #20]           @ 4-byte Spill
	str	r2, [sp, #24]           @ 4-byte Spill
	adcs	r5, r4, r10
	ldm	r11, {r4, r8, r11}
	ldr	r10, [r1, #44]
	ldm	lr, {r1, r2, r12, lr}
	str	r9, [r0]
	stmib	r0, {r6, r7}
	ldr	r6, [sp]                @ 4-byte Reload
	str	r5, [r0, #12]
	ldr	r5, [sp, #4]            @ 4-byte Reload
	ldr	r7, [sp, #8]            @ 4-byte Reload
	adcs	r1, r6, r1
	adcs	r2, r5, r2
	str	r1, [r0, #16]
	ldr	r1, [sp, #16]           @ 4-byte Reload
	ldr	r5, [r3]
	str	r2, [r0, #20]
	ldr	r2, [sp, #28]           @ 4-byte Reload
	adcs	r1, r1, r12
	adcs	r2, r2, lr
	adcs	r12, r7, r4
	ldr	r7, [sp, #12]           @ 4-byte Reload
	mov	r4, #0
	adcs	r9, r7, r8
	ldr	r7, [sp, #20]           @ 4-byte Reload
	adcs	r8, r7, r11
	ldr	r7, [sp, #24]           @ 4-byte Reload
	adcs	lr, r7, r10
	adc	r7, r4, #0
	ldmib	r3, {r4, r6, r10, r11}
	subs	r5, r1, r5
	ldr	r3, [r3, #20]
	sbcs	r4, r2, r4
	sbcs	r6, r12, r6
	sbcs	r10, r9, r10
	sbcs	r11, r8, r11
	sbcs	r3, lr, r3
	sbc	r7, r7, #0
	ands	r7, r7, #1
	movne	r5, r1
	movne	r4, r2
	movne	r6, r12
	cmp	r7, #0
	add	r1, r0, #32
	movne	r10, r9
	movne	r11, r8
	movne	r3, lr
	str	r5, [r0, #24]
	str	r4, [r0, #28]
	stm	r1, {r6, r10, r11}
	str	r3, [r0, #44]
	add	sp, sp, #32
	pop	{r4, r5, r6, r7, r8, r9, r10, r11, lr}
	mov	pc, lr
.Lfunc_end93:
	.size	mcl_fpDbl_add6L, .Lfunc_end93-mcl_fpDbl_add6L
	.cantunwind
	.fnend

	.globl	mcl_fpDbl_sub6L
	.align	2
	.type	mcl_fpDbl_sub6L,%function
mcl_fpDbl_sub6L:                        @ @mcl_fpDbl_sub6L
	.fnstart
@ BB#0:
	.save	{r4, r5, r6, r7, r8, r9, r10, r11, lr}
	push	{r4, r5, r6, r7, r8, r9, r10, r11, lr}
	.pad	#44
	sub	sp, sp, #44
	ldr	r6, [r2, #8]
	ldr	r7, [r2, #32]
	add	r10, r1, #12
	str	r6, [sp]                @ 4-byte Spill
	ldr	r6, [r2, #12]
	str	r7, [sp, #28]           @ 4-byte Spill
	ldr	r7, [r2, #36]
	str	r6, [sp, #4]            @ 4-byte Spill
	ldr	r6, [r2, #16]
	str	r7, [sp, #32]           @ 4-byte Spill
	ldr	r7, [r2, #40]
	str	r6, [sp, #8]            @ 4-byte Spill
	ldr	r6, [r2, #20]
	str	r7, [sp, #36]           @ 4-byte Spill
	ldr	r7, [r2, #44]
	str	r6, [sp, #12]           @ 4-byte Spill
	ldr	r6, [r2, #24]
	str	r7, [sp, #40]           @ 4-byte Spill
	ldr	r7, [r1, #44]
	str	r6, [sp, #16]           @ 4-byte Spill
	ldr	r6, [r2, #28]
	str	r7, [sp, #24]           @ 4-byte Spill
	ldr	r7, [r2, #4]
	ldr	r2, [r2]
	str	r6, [sp, #20]           @ 4-byte Spill
	ldm	r10, {r4, r5, r8, r9, r10}
	ldm	r1, {r11, r12, lr}
	ldr	r6, [sp]                @ 4-byte Reload
	subs	r2, r11, r2
	ldr	r11, [r1, #40]
	sbcs	r7, r12, r7
	ldr	r12, [r1, #36]
	ldr	r1, [r1, #32]
	sbcs	lr, lr, r6
	ldr	r6, [sp, #4]            @ 4-byte Reload
	stm	r0, {r2, r7, lr}
	mov	lr, #0
	ldr	r2, [sp, #8]            @ 4-byte Reload
	sbcs	r4, r4, r6
	str	r4, [r0, #12]
	sbcs	r2, r5, r2
	ldr	r5, [sp, #24]           @ 4-byte Reload
	str	r2, [r0, #16]
	ldr	r2, [sp, #12]           @ 4-byte Reload
	sbcs	r2, r8, r2
	str	r2, [r0, #20]
	ldr	r2, [sp, #16]           @ 4-byte Reload
	sbcs	r7, r9, r2
	ldr	r2, [sp, #20]           @ 4-byte Reload
	sbcs	r6, r10, r2
	ldr	r2, [sp, #28]           @ 4-byte Reload
	sbcs	r1, r1, r2
	ldr	r2, [sp, #32]           @ 4-byte Reload
	sbcs	r10, r12, r2
	ldr	r2, [sp, #36]           @ 4-byte Reload
	sbcs	r9, r11, r2
	ldr	r2, [sp, #40]           @ 4-byte Reload
	sbcs	r8, r5, r2
	sbc	r12, lr, #0
	ldm	r3, {r2, r4, r5, lr}
	ldr	r11, [r3, #16]
	ldr	r3, [r3, #20]
	adds	r2, r7, r2
	adcs	r4, r6, r4
	adcs	r5, r1, r5
	adcs	lr, r10, lr
	adcs	r11, r9, r11
	adc	r3, r8, r3
	ands	r12, r12, #1
	moveq	r2, r7
	moveq	r4, r6
	moveq	r5, r1
	cmp	r12, #0
	moveq	lr, r10
	moveq	r11, r9
	moveq	r3, r8
	str	r2, [r0, #24]
	str	r4, [r0, #28]
	str	r5, [r0, #32]
	str	lr, [r0, #36]
	str	r11, [r0, #40]
	str	r3, [r0, #44]
	add	sp, sp, #44
	pop	{r4, r5, r6, r7, r8, r9, r10, r11, lr}
	mov	pc, lr
.Lfunc_end94:
	.size	mcl_fpDbl_sub6L, .Lfunc_end94-mcl_fpDbl_sub6L
	.cantunwind
	.fnend

	.globl	mcl_fp_mulUnitPre7L
	.align	2
	.type	mcl_fp_mulUnitPre7L,%function
mcl_fp_mulUnitPre7L:                    @ @mcl_fp_mulUnitPre7L
	.fnstart
@ BB#0:
	.save	{r4, r5, r6, r7, r8, r9, r10, r11, lr}
	push	{r4, r5, r6, r7, r8, r9, r10, r11, lr}
	ldr	r12, [r1]
	ldmib	r1, {r3, lr}
	ldr	r11, [r1, #12]
	ldr	r10, [r1, #16]
	ldr	r9, [r1, #20]
	ldr	r8, [r1, #24]
	umull	r7, r1, lr, r2
	umull	lr, r4, r12, r2
	mov	r5, r4
	mov	r6, r7
	str	lr, [r0]
	umlal	r5, r6, r3, r2
	stmib	r0, {r5, r6}
	umull	r6, r5, r3, r2
	adds	r3, r4, r6
	umull	r3, r6, r11, r2
	adcs	r7, r5, r7
	adcs	r1, r1, r3
	str	r1, [r0, #12]
	umull	r1, r3, r10, r2
	adcs	r1, r6, r1
	str	r1, [r0, #16]
	umull	r1, r7, r9, r2
	adcs	r1, r3, r1
	str	r1, [r0, #20]
	umull	r1, r3, r8, r2
	adcs	r1, r7, r1
	str	r1, [r0, #24]
	adc	r1, r3, #0
	str	r1, [r0, #28]
	pop	{r4, r5, r6, r7, r8, r9, r10, r11, lr}
	mov	pc, lr
.Lfunc_end95:
	.size	mcl_fp_mulUnitPre7L, .Lfunc_end95-mcl_fp_mulUnitPre7L
	.cantunwind
	.fnend

	.globl	mcl_fpDbl_mulPre7L
	.align	2
	.type	mcl_fpDbl_mulPre7L,%function
mcl_fpDbl_mulPre7L:                     @ @mcl_fpDbl_mulPre7L
	.fnstart
@ BB#0:
	.save	{r4, r5, r6, r7, r8, r9, r10, r11, lr}
	push	{r4, r5, r6, r7, r8, r9, r10, r11, lr}
	.pad	#68
	sub	sp, sp, #68
	mov	r3, r2
	ldr	r7, [r1]
	ldr	lr, [r1, #4]
	mov	r9, r0
	ldr	r0, [r1, #8]
	ldr	r2, [r1, #12]
	ldr	r10, [r1, #16]
	ldr	r8, [r1, #20]
	str	r3, [sp, #64]           @ 4-byte Spill
	ldr	r3, [r3]
	str	r9, [sp, #60]           @ 4-byte Spill
	str	r7, [sp, #28]           @ 4-byte Spill
	str	r0, [sp, #56]           @ 4-byte Spill
	str	r2, [sp, #44]           @ 4-byte Spill
	umull	r5, r4, r7, r3
	umull	r6, r12, lr, r3
	adds	r6, r4, r6
	str	r5, [sp, #48]           @ 4-byte Spill
	umull	r5, r6, r0, r3
	adcs	r7, r12, r5
	umlal	r4, r5, lr, r3
	umull	r7, r11, r2, r3
	adcs	r0, r6, r7
	str	r0, [sp, #52]           @ 4-byte Spill
	umull	r6, r0, r10, r3
	adcs	r2, r11, r6
	umull	r11, r7, r8, r3
	ldr	r6, [sp, #28]           @ 4-byte Reload
	adcs	r0, r0, r11
	str	r2, [sp, #40]           @ 4-byte Spill
	str	r0, [sp, #36]           @ 4-byte Spill
	ldr	r0, [r1, #24]
	umull	r11, r12, r0, r3
	adcs	r2, r7, r11
	str	r2, [sp, #20]           @ 4-byte Spill
	ldr	r2, [sp, #48]           @ 4-byte Reload
	str	r2, [r9]
	ldr	r2, [sp, #64]           @ 4-byte Reload
	ldr	r3, [r2, #4]
	umull	r11, r7, r6, r3
	str	r7, [sp, #32]           @ 4-byte Spill
	adc	r7, r12, #0
	str	r7, [sp, #16]           @ 4-byte Spill
	adds	r7, r11, r4
	str	r7, [sp, #48]           @ 4-byte Spill
	umull	r4, r7, lr, r3
	str	r7, [sp, #28]           @ 4-byte Spill
	adcs	r7, r4, r5
	str	r7, [sp, #12]           @ 4-byte Spill
	ldr	r7, [sp, #44]           @ 4-byte Reload
	umull	r4, r5, r7, r3
	ldr	r7, [sp, #56]           @ 4-byte Reload
	str	r5, [sp, #24]           @ 4-byte Spill
	umull	r5, r6, r7, r3
	ldr	r7, [sp, #52]           @ 4-byte Reload
	str	r6, [sp, #44]           @ 4-byte Spill
	ldr	r6, [sp, #20]           @ 4-byte Reload
	adcs	r11, r5, r7
	ldr	r7, [sp, #40]           @ 4-byte Reload
	ldr	r5, [sp, #12]           @ 4-byte Reload
	adcs	lr, r4, r7
	umull	r9, r7, r10, r3
	str	r7, [sp, #56]           @ 4-byte Spill
	ldr	r7, [sp, #36]           @ 4-byte Reload
	adcs	r7, r9, r7
	umull	r4, r9, r8, r3
	adcs	r4, r4, r6
	umull	r6, r12, r0, r3
	ldr	r0, [sp, #16]           @ 4-byte Reload
	adcs	r3, r6, r0
	mov	r0, #0
	adc	r6, r0, #0
	ldr	r0, [sp, #32]           @ 4-byte Reload
	adds	r8, r5, r0
	ldr	r0, [sp, #28]           @ 4-byte Reload
	adcs	r5, r11, r0
	ldr	r0, [sp, #44]           @ 4-byte Reload
	adcs	r0, lr, r0
	ldr	lr, [r1, #12]
	str	r0, [sp, #16]           @ 4-byte Spill
	ldr	r0, [sp, #24]           @ 4-byte Reload
	adcs	r7, r7, r0
	ldr	r0, [sp, #56]           @ 4-byte Reload
	str	r7, [sp, #24]           @ 4-byte Spill
	adcs	r7, r4, r0
	ldr	r0, [sp, #60]           @ 4-byte Reload
	ldr	r4, [r1, #4]
	adcs	r3, r3, r9
	ldr	r9, [r1, #8]
	str	r7, [sp, #36]           @ 4-byte Spill
	str	r3, [sp, #40]           @ 4-byte Spill
	adc	r3, r6, r12
	ldr	r6, [r2, #8]
	str	r3, [sp, #44]           @ 4-byte Spill
	ldr	r3, [sp, #48]           @ 4-byte Reload
	str	r4, [sp, #52]           @ 4-byte Spill
	str	r3, [r0, #4]
	ldr	r3, [r1]
	umull	r12, r7, r3, r6
	str	r3, [sp, #56]           @ 4-byte Spill
	str	r7, [sp, #32]           @ 4-byte Spill
	adds	r3, r12, r8
	umull	r7, r0, r4, r6
	ldr	r12, [r1, #24]
	str	r0, [sp, #28]           @ 4-byte Spill
	adcs	r2, r7, r5
	umull	r7, r0, r9, r6
	str	r3, [sp, #48]           @ 4-byte Spill
	ldr	r10, [sp, #32]          @ 4-byte Reload
	str	r0, [sp, #20]           @ 4-byte Spill
	ldr	r0, [sp, #16]           @ 4-byte Reload
	adcs	r0, r7, r0
	str	r0, [sp, #12]           @ 4-byte Spill
	umull	r5, r0, lr, r6
	str	r0, [sp, #16]           @ 4-byte Spill
	ldr	r0, [sp, #24]           @ 4-byte Reload
	adcs	r0, r5, r0
	ldr	r5, [sp, #12]           @ 4-byte Reload
	str	r0, [sp, #4]            @ 4-byte Spill
	ldr	r0, [r1, #16]
	umull	r11, r3, r0, r6
	str	r0, [sp, #24]           @ 4-byte Spill
	ldr	r0, [sp, #36]           @ 4-byte Reload
	str	r3, [sp, #8]            @ 4-byte Spill
	ldr	r3, [r1, #20]
	adcs	r11, r11, r0
	ldr	r0, [sp, #40]           @ 4-byte Reload
	umull	r8, r4, r3, r6
	adcs	r8, r8, r0
	umull	r7, r0, r12, r6
	ldr	r6, [sp, #44]           @ 4-byte Reload
	adcs	r6, r7, r6
	mov	r7, #0
	adc	r7, r7, #0
	adds	r2, r2, r10
	str	r2, [sp]                @ 4-byte Spill
	ldr	r2, [sp, #28]           @ 4-byte Reload
	adcs	r2, r5, r2
	ldr	r5, [sp, #4]            @ 4-byte Reload
	str	r2, [sp, #12]           @ 4-byte Spill
	ldr	r2, [sp, #20]           @ 4-byte Reload
	adcs	r10, r5, r2
	ldr	r2, [sp, #16]           @ 4-byte Reload
	adcs	r11, r11, r2
	ldr	r2, [sp, #8]            @ 4-byte Reload
	adcs	r2, r8, r2
	ldr	r8, [sp, #56]           @ 4-byte Reload
	str	r2, [sp, #28]           @ 4-byte Spill
	adcs	r2, r6, r4
	adc	r0, r7, r0
	ldr	r7, [sp, #60]           @ 4-byte Reload
	str	r2, [sp, #36]           @ 4-byte Spill
	str	r0, [sp, #40]           @ 4-byte Spill
	ldr	r0, [sp, #48]           @ 4-byte Reload
	str	r0, [r7, #8]
	ldr	r0, [sp, #64]           @ 4-byte Reload
	ldr	r6, [r0, #12]
	umull	r2, r4, lr, r6
	str	r4, [sp, #48]           @ 4-byte Spill
	umull	lr, r4, r9, r6
	str	r4, [sp, #44]           @ 4-byte Spill
	ldr	r4, [sp, #52]           @ 4-byte Reload
	umull	r9, r5, r4, r6
	str	r5, [sp, #32]           @ 4-byte Spill
	umull	r4, r5, r8, r6
	str	r5, [sp, #52]           @ 4-byte Spill
	ldr	r5, [sp]                @ 4-byte Reload
	adds	r4, r4, r5
	umull	r5, r8, r3, r6
	str	r4, [sp, #56]           @ 4-byte Spill
	ldr	r4, [sp, #12]           @ 4-byte Reload
	adcs	r9, r9, r4
	adcs	lr, lr, r10
	adcs	r11, r2, r11
	ldr	r2, [sp, #24]           @ 4-byte Reload
	umull	r4, r10, r2, r6
	ldr	r2, [sp, #28]           @ 4-byte Reload
	adcs	r4, r4, r2
	ldr	r2, [sp, #36]           @ 4-byte Reload
	adcs	r3, r5, r2
	umull	r5, r2, r12, r6
	ldr	r6, [sp, #40]           @ 4-byte Reload
	adcs	r12, r5, r6
	ldr	r6, [sp, #52]           @ 4-byte Reload
	mov	r5, #0
	adc	r5, r5, #0
	adds	r9, r9, r6
	ldr	r6, [sp, #32]           @ 4-byte Reload
	adcs	lr, lr, r6
	ldr	r6, [sp, #44]           @ 4-byte Reload
	adcs	r6, r11, r6
	ldr	r11, [r1, #8]
	str	r6, [sp, #20]           @ 4-byte Spill
	ldr	r6, [sp, #48]           @ 4-byte Reload
	adcs	r4, r4, r6
	adcs	r3, r3, r10
	str	r4, [sp, #28]           @ 4-byte Spill
	ldr	r4, [r1, #12]
	adcs	r12, r12, r8
	str	r3, [sp, #40]           @ 4-byte Spill
	adc	r2, r5, r2
	str	r2, [sp, #44]           @ 4-byte Spill
	ldr	r2, [sp, #56]           @ 4-byte Reload
	str	r2, [r7, #12]
	ldr	r7, [r0, #16]
	ldr	r0, [r1]
	ldr	r2, [r1, #4]
	umull	r8, r3, r0, r7
	str	r0, [sp, #56]           @ 4-byte Spill
	str	r2, [sp, #52]           @ 4-byte Spill
	adds	r0, r8, r9
	str	r3, [sp, #36]           @ 4-byte Spill
	str	r0, [sp, #48]           @ 4-byte Spill
	umull	r6, r0, r2, r7
	ldr	r2, [r1, #24]
	str	r0, [sp, #32]           @ 4-byte Spill
	adcs	r0, r6, lr
	ldr	lr, [r1, #16]
	str	r0, [sp, #16]           @ 4-byte Spill
	umull	r6, r0, r11, r7
	str	r0, [sp, #24]           @ 4-byte Spill
	ldr	r0, [sp, #20]           @ 4-byte Reload
	adcs	r0, r6, r0
	mov	r6, #0
	str	r0, [sp, #12]           @ 4-byte Spill
	umull	r3, r0, r4, r7
	str	r0, [sp, #20]           @ 4-byte Spill
	ldr	r0, [sp, #28]           @ 4-byte Reload
	adcs	r0, r3, r0
	ldr	r3, [r1, #20]
	str	r0, [sp, #8]            @ 4-byte Spill
	umull	r10, r0, lr, r7
	str	r0, [sp, #28]           @ 4-byte Spill
	ldr	r0, [sp, #40]           @ 4-byte Reload
	umull	r9, r5, r3, r7
	adcs	r10, r10, r0
	ldr	r0, [sp, #44]           @ 4-byte Reload
	adcs	r9, r9, r12
	umull	r8, r12, r2, r7
	adcs	r7, r8, r0
	ldr	r0, [sp, #36]           @ 4-byte Reload
	adc	r8, r6, #0
	ldr	r6, [sp, #16]           @ 4-byte Reload
	adds	r0, r6, r0
	ldr	r6, [sp, #12]           @ 4-byte Reload
	str	r0, [sp, #44]           @ 4-byte Spill
	ldr	r0, [sp, #32]           @ 4-byte Reload
	adcs	r0, r6, r0
	ldr	r6, [sp, #8]            @ 4-byte Reload
	str	r0, [sp, #16]           @ 4-byte Spill
	ldr	r0, [sp, #24]           @ 4-byte Reload
	adcs	r0, r6, r0
	str	r0, [sp, #12]           @ 4-byte Spill
	ldr	r0, [sp, #20]           @ 4-byte Reload
	adcs	r10, r10, r0
	ldr	r0, [sp, #28]           @ 4-byte Reload
	adcs	r0, r9, r0
	str	r0, [sp, #24]           @ 4-byte Spill
	adcs	r0, r7, r5
	ldr	r7, [sp, #48]           @ 4-byte Reload
	str	r0, [sp, #32]           @ 4-byte Spill
	adc	r0, r8, r12
	str	r0, [sp, #36]           @ 4-byte Spill
	ldr	r0, [sp, #60]           @ 4-byte Reload
	str	r7, [r0, #16]
	ldr	r7, [sp, #64]           @ 4-byte Reload
	ldr	r7, [r7, #20]
	umull	r8, r6, r4, r7
	str	r6, [sp, #48]           @ 4-byte Spill
	umull	r4, r6, r11, r7
	str	r6, [sp, #40]           @ 4-byte Spill
	ldr	r6, [sp, #52]           @ 4-byte Reload
	umull	r11, r5, r6, r7
	ldr	r6, [sp, #56]           @ 4-byte Reload
	str	r5, [sp, #28]           @ 4-byte Spill
	umull	r5, r9, r6, r7
	ldr	r6, [sp, #44]           @ 4-byte Reload
	adds	r6, r5, r6
	str	r6, [sp, #44]           @ 4-byte Spill
	ldr	r6, [sp, #16]           @ 4-byte Reload
	adcs	r11, r11, r6
	ldr	r6, [sp, #12]           @ 4-byte Reload
	adcs	r12, r4, r6
	ldr	r6, [sp, #24]           @ 4-byte Reload
	adcs	r10, r8, r10
	umull	r5, r8, lr, r7
	umull	r4, lr, r3, r7
	ldr	r3, [sp, #32]           @ 4-byte Reload
	adcs	r5, r5, r6
	adcs	r3, r4, r3
	umull	r4, r6, r2, r7
	ldr	r2, [sp, #36]           @ 4-byte Reload
	adcs	r2, r4, r2
	mov	r4, #0
	adc	r4, r4, #0
	adds	r7, r11, r9
	str	r7, [sp, #36]           @ 4-byte Spill
	ldr	r7, [sp, #28]           @ 4-byte Reload
	adcs	r7, r12, r7
	str	r7, [sp, #32]           @ 4-byte Spill
	ldr	r7, [sp, #40]           @ 4-byte Reload
	adcs	r9, r10, r7
	ldr	r7, [sp, #48]           @ 4-byte Reload
	adcs	r11, r5, r7
	adcs	r3, r3, r8
	adcs	r2, r2, lr
	str	r3, [sp, #40]           @ 4-byte Spill
	str	r2, [sp, #52]           @ 4-byte Spill
	adc	r2, r4, r6
	ldr	r6, [r1]
	str	r2, [sp, #56]           @ 4-byte Spill
	ldr	r2, [sp, #44]           @ 4-byte Reload
	str	r2, [r0, #20]
	ldr	r0, [sp, #64]           @ 4-byte Reload
	ldr	r4, [r0, #24]
	ldmib	r1, {r0, r3, r5}
	umull	r12, r2, r5, r4
	str	r2, [sp, #64]           @ 4-byte Spill
	umull	r5, r2, r3, r4
	umull	r3, r10, r0, r4
	umull	r0, r8, r6, r4
	ldr	r6, [r1, #16]
	str	r2, [sp, #44]           @ 4-byte Spill
	ldr	r2, [sp, #36]           @ 4-byte Reload
	adds	r0, r0, r2
	ldr	r2, [sp, #40]           @ 4-byte Reload
	str	r0, [sp, #48]           @ 4-byte Spill
	ldr	r0, [sp, #32]           @ 4-byte Reload
	adcs	lr, r3, r0
	adcs	r9, r5, r9
	adcs	r11, r12, r11
	umull	r0, r12, r6, r4
	ldr	r6, [r1, #20]
	ldr	r1, [r1, #24]
	adcs	r0, r0, r2
	ldr	r2, [sp, #52]           @ 4-byte Reload
	umull	r3, r5, r6, r4
	umull	r6, r7, r1, r4
	ldr	r1, [sp, #56]           @ 4-byte Reload
	mov	r4, #0
	adcs	r3, r3, r2
	ldr	r2, [sp, #44]           @ 4-byte Reload
	adcs	r1, r6, r1
	adc	r4, r4, #0
	adds	r6, lr, r8
	adcs	lr, r9, r10
	adcs	r8, r11, r2
	ldr	r2, [sp, #64]           @ 4-byte Reload
	adcs	r0, r0, r2
	ldr	r2, [sp, #60]           @ 4-byte Reload
	adcs	r3, r3, r12
	adcs	r1, r1, r5
	ldr	r5, [sp, #48]           @ 4-byte Reload
	adc	r7, r4, r7
	add	r12, r2, #24
	stm	r12, {r5, r6, lr}
	str	r8, [r2, #36]
	str	r0, [r2, #40]
	str	r3, [r2, #44]
	str	r1, [r2, #48]
	str	r7, [r2, #52]
	add	sp, sp, #68
	pop	{r4, r5, r6, r7, r8, r9, r10, r11, lr}
	mov	pc, lr
.Lfunc_end96:
	.size	mcl_fpDbl_mulPre7L, .Lfunc_end96-mcl_fpDbl_mulPre7L
	.cantunwind
	.fnend

	.globl	mcl_fpDbl_sqrPre7L
	.align	2
	.type	mcl_fpDbl_sqrPre7L,%function
mcl_fpDbl_sqrPre7L:                     @ @mcl_fpDbl_sqrPre7L
	.fnstart
@ BB#0:
	.save	{r4, r5, r6, r7, r8, r9, r10, r11, lr}
	push	{r4, r5, r6, r7, r8, r9, r10, r11, lr}
	.pad	#60
	sub	sp, sp, #60
	str	r0, [sp, #56]           @ 4-byte Spill
	ldr	r0, [r1, #16]
	ldr	r9, [r1, #20]
	str	r0, [sp, #8]            @ 4-byte Spill
	ldm	r1, {r2, r3}
	ldr	r0, [r1, #8]
	ldr	r11, [r1, #12]
	umull	r6, r7, r2, r2
	str	r0, [sp, #48]           @ 4-byte Spill
	umull	r5, r4, r0, r2
	umull	r12, r0, r3, r2
	umull	r8, r10, r11, r2
	adds	lr, r7, r12
	str	r6, [sp, #32]           @ 4-byte Spill
	str	r0, [sp, #52]           @ 4-byte Spill
	adcs	r6, r0, r5
	umlal	r7, r5, r3, r2
	adcs	r0, r4, r8
	str	r0, [sp, #44]           @ 4-byte Spill
	ldr	r0, [sp, #8]            @ 4-byte Reload
	umull	r4, r6, r0, r2
	adcs	r4, r10, r4
	mov	r10, r9
	str	r4, [sp, #40]           @ 4-byte Spill
	umull	r4, r8, r10, r2
	adcs	r6, r6, r4
	str	r6, [sp, #28]           @ 4-byte Spill
	ldr	r6, [r1, #24]
	umull	lr, r9, r6, r2
	adcs	r4, r8, lr
	str	r4, [sp, #20]           @ 4-byte Spill
	adc	r4, r9, #0
	adds	r2, r12, r7
	ldr	r12, [sp, #56]          @ 4-byte Reload
	str	r2, [sp, #36]           @ 4-byte Spill
	umull	r2, r7, r3, r3
	adcs	r2, r2, r5
	str	r7, [sp, #16]           @ 4-byte Spill
	umull	r5, r8, r11, r3
	str	r2, [sp, #12]           @ 4-byte Spill
	ldr	r2, [sp, #32]           @ 4-byte Reload
	str	r2, [r12]
	umull	lr, r2, r6, r3
	str	r2, [sp, #32]           @ 4-byte Spill
	umull	r6, r2, r10, r3
	str	r2, [sp, #24]           @ 4-byte Spill
	umull	r2, r10, r0, r3
	ldr	r0, [sp, #48]           @ 4-byte Reload
	umull	r7, r9, r0, r3
	ldr	r0, [sp, #44]           @ 4-byte Reload
	adcs	r3, r7, r0
	ldr	r0, [sp, #40]           @ 4-byte Reload
	adcs	r7, r5, r0
	ldr	r0, [sp, #28]           @ 4-byte Reload
	mov	r5, #0
	adcs	r2, r2, r0
	ldr	r0, [sp, #20]           @ 4-byte Reload
	adcs	r6, r6, r0
	ldr	r0, [sp, #52]           @ 4-byte Reload
	adcs	lr, lr, r4
	ldr	r4, [sp, #12]           @ 4-byte Reload
	adc	r5, r5, #0
	adds	r11, r4, r0
	ldr	r0, [sp, #16]           @ 4-byte Reload
	ldr	r4, [r1, #4]
	adcs	r3, r3, r0
	ldr	r0, [sp, #36]           @ 4-byte Reload
	str	r4, [sp, #44]           @ 4-byte Spill
	adcs	r7, r7, r9
	adcs	r9, r2, r8
	ldr	r2, [r1, #12]
	str	r0, [r12, #4]
	ldr	r0, [sp, #24]           @ 4-byte Reload
	adcs	r12, r6, r10
	adcs	r10, lr, r0
	ldr	r0, [sp, #32]           @ 4-byte Reload
	ldr	lr, [r1, #8]
	adc	r0, r5, r0
	str	r0, [sp, #40]           @ 4-byte Spill
	ldr	r0, [r1]
	umull	r8, r5, r0, lr
	str	r0, [sp, #48]           @ 4-byte Spill
	adds	r0, r8, r11
	str	r5, [sp, #32]           @ 4-byte Spill
	str	r0, [sp, #52]           @ 4-byte Spill
	umull	r5, r0, r4, lr
	ldr	r4, [r1, #16]
	str	r0, [sp, #28]           @ 4-byte Spill
	adcs	r0, r5, r3
	str	r0, [sp, #20]           @ 4-byte Spill
	umull	r3, r0, lr, lr
	str	r0, [sp, #24]           @ 4-byte Spill
	adcs	r0, r3, r7
	ldr	r3, [r1, #20]
	ldr	r7, [sp, #40]           @ 4-byte Reload
	str	r0, [sp, #16]           @ 4-byte Spill
	umull	r0, r5, r2, lr
	str	r0, [sp, #12]           @ 4-byte Spill
	adcs	r0, r0, r9
	ldr	r9, [sp, #20]           @ 4-byte Reload
	str	r5, [sp, #36]           @ 4-byte Spill
	str	r0, [sp, #4]            @ 4-byte Spill
	umull	r11, r0, r4, lr
	str	r0, [sp, #8]            @ 4-byte Spill
	umull	r8, r0, r3, lr
	adcs	r11, r11, r12
	str	r0, [sp]                @ 4-byte Spill
	ldr	r0, [r1, #24]
	adcs	r8, r8, r10
	umull	r10, r12, r0, lr
	adcs	lr, r10, r7
	mov	r7, #0
	adc	r10, r7, #0
	ldr	r7, [sp, #32]           @ 4-byte Reload
	adds	r6, r9, r7
	ldr	r7, [sp, #28]           @ 4-byte Reload
	str	r6, [sp, #20]           @ 4-byte Spill
	ldr	r6, [sp, #16]           @ 4-byte Reload
	adcs	r6, r6, r7
	ldr	r7, [sp, #24]           @ 4-byte Reload
	str	r6, [sp, #16]           @ 4-byte Spill
	ldr	r6, [sp, #4]            @ 4-byte Reload
	adcs	r6, r6, r7
	adcs	r11, r11, r5
	ldr	r5, [sp, #8]            @ 4-byte Reload
	adcs	r5, r8, r5
	str	r5, [sp, #8]            @ 4-byte Spill
	ldr	r5, [sp]                @ 4-byte Reload
	adcs	r7, lr, r5
	str	r7, [sp, #4]            @ 4-byte Spill
	adc	r7, r10, r12
	ldr	r10, [sp, #48]          @ 4-byte Reload
	str	r7, [sp]                @ 4-byte Spill
	umull	r9, r7, r0, r2
	umull	r5, r0, r3, r2
	str	r7, [sp, #40]           @ 4-byte Spill
	ldr	r7, [sp, #44]           @ 4-byte Reload
	str	r0, [sp, #32]           @ 4-byte Spill
	umull	r3, r0, r4, r2
	str	r0, [sp, #28]           @ 4-byte Spill
	umull	r4, r0, r2, r2
	str	r0, [sp, #24]           @ 4-byte Spill
	umull	r8, lr, r10, r2
	umull	r0, r12, r7, r2
	ldr	r2, [sp, #20]           @ 4-byte Reload
	mov	r7, #0
	adds	r8, r8, r2
	ldr	r2, [sp, #16]           @ 4-byte Reload
	adcs	r0, r0, r2
	ldr	r2, [sp, #12]           @ 4-byte Reload
	adcs	r6, r2, r6
	ldr	r2, [sp, #8]            @ 4-byte Reload
	adcs	r4, r4, r11
	adcs	r3, r3, r2
	ldr	r2, [sp, #4]            @ 4-byte Reload
	adcs	r5, r5, r2
	ldr	r2, [sp]                @ 4-byte Reload
	adcs	r2, r9, r2
	adc	r9, r7, #0
	adds	r0, r0, lr
	adcs	r7, r6, r12
	ldr	r6, [sp, #36]           @ 4-byte Reload
	adcs	r4, r4, r6
	ldr	r6, [sp, #24]           @ 4-byte Reload
	adcs	r11, r3, r6
	ldr	r3, [sp, #28]           @ 4-byte Reload
	adcs	r12, r5, r3
	ldr	r3, [sp, #32]           @ 4-byte Reload
	ldr	r5, [r1, #12]
	adcs	r10, r2, r3
	ldr	r2, [sp, #40]           @ 4-byte Reload
	ldr	r3, [sp, #56]           @ 4-byte Reload
	adc	r2, r9, r2
	ldr	r9, [r1, #4]
	str	r2, [sp, #44]           @ 4-byte Spill
	ldr	r2, [sp, #52]           @ 4-byte Reload
	str	r9, [sp, #16]           @ 4-byte Spill
	str	r2, [r3, #8]
	str	r8, [r3, #12]
	ldr	r2, [r1]
	ldr	r3, [r1, #16]
	ldr	r8, [r1, #8]
	umull	lr, r6, r2, r3
	str	r2, [sp, #48]           @ 4-byte Spill
	str	r8, [sp, #4]            @ 4-byte Spill
	adds	r0, lr, r0
	ldr	lr, [r1, #24]
	str	r6, [sp, #36]           @ 4-byte Spill
	str	r0, [sp, #52]           @ 4-byte Spill
	umull	r0, r2, r9, r3
	adcs	r0, r0, r7
	str	r2, [sp, #32]           @ 4-byte Spill
	str	r0, [sp, #20]           @ 4-byte Spill
	umull	r7, r0, r8, r3
	str	r0, [sp, #28]           @ 4-byte Spill
	adcs	r0, r7, r4
	ldr	r9, [sp, #20]           @ 4-byte Reload
	str	r0, [sp, #8]            @ 4-byte Spill
	umull	r7, r0, r5, r3
	str	r0, [sp, #24]           @ 4-byte Spill
	adcs	r0, r7, r11
	mov	r7, #0
	str	r0, [sp]                @ 4-byte Spill
	umull	r11, r0, r3, r3
	str	r0, [sp, #12]           @ 4-byte Spill
	ldr	r0, [r1, #20]
	adcs	r11, r11, r12
	umull	r12, r2, r0, r3
	adcs	r4, r12, r10
	umull	r10, r8, lr, r3
	ldr	r3, [sp, #44]           @ 4-byte Reload
	str	r2, [sp, #40]           @ 4-byte Spill
	adcs	r3, r10, r3
	adc	r10, r7, #0
	ldr	r7, [sp, #36]           @ 4-byte Reload
	adds	r6, r9, r7
	ldr	r7, [sp, #32]           @ 4-byte Reload
	str	r6, [sp, #36]           @ 4-byte Spill
	ldr	r6, [sp, #8]            @ 4-byte Reload
	adcs	r6, r6, r7
	ldr	r7, [sp, #28]           @ 4-byte Reload
	str	r6, [sp, #20]           @ 4-byte Spill
	ldr	r6, [sp]                @ 4-byte Reload
	adcs	r6, r6, r7
	ldr	r7, [sp, #24]           @ 4-byte Reload
	str	r6, [sp, #8]            @ 4-byte Spill
	adcs	r11, r11, r7
	ldr	r7, [sp, #12]           @ 4-byte Reload
	adcs	r4, r4, r7
	adcs	r2, r3, r2
	ldr	r3, [sp, #4]            @ 4-byte Reload
	str	r2, [sp, #24]           @ 4-byte Spill
	umull	r6, r2, r5, r0
	adc	r10, r10, r8
	str	r2, [sp, #44]           @ 4-byte Spill
	umull	r5, r2, r3, r0
	str	r2, [sp, #32]           @ 4-byte Spill
	ldr	r2, [sp, #16]           @ 4-byte Reload
	umull	r8, r3, r2, r0
	ldr	r2, [sp, #48]           @ 4-byte Reload
	str	r3, [sp, #28]           @ 4-byte Spill
	umull	r3, r9, r2, r0
	ldr	r2, [sp, #36]           @ 4-byte Reload
	adds	r2, r3, r2
	ldr	r3, [sp, #24]           @ 4-byte Reload
	str	r2, [sp, #36]           @ 4-byte Spill
	ldr	r2, [sp, #20]           @ 4-byte Reload
	adcs	r7, r8, r2
	ldr	r2, [sp, #8]            @ 4-byte Reload
	adcs	r5, r5, r2
	adcs	r6, r6, r11
	adcs	r2, r12, r4
	umull	r4, r8, r0, r0
	adcs	r4, r4, r3
	umull	r3, r11, lr, r0
	adcs	r0, r3, r10
	mov	r3, #0
	adc	r3, r3, #0
	adds	r7, r7, r9
	str	r7, [sp, #24]           @ 4-byte Spill
	ldr	r7, [sp, #28]           @ 4-byte Reload
	adcs	r9, r5, r7
	ldr	r5, [sp, #32]           @ 4-byte Reload
	adcs	r6, r6, r5
	str	r6, [sp, #32]           @ 4-byte Spill
	ldr	r6, [sp, #44]           @ 4-byte Reload
	adcs	r10, r2, r6
	ldr	r2, [sp, #40]           @ 4-byte Reload
	adcs	r12, r4, r2
	ldr	r2, [sp, #56]           @ 4-byte Reload
	adcs	r0, r0, r8
	str	r0, [sp, #44]           @ 4-byte Spill
	adc	r0, r3, r11
	ldr	r3, [r1, #24]
	str	r0, [sp, #48]           @ 4-byte Spill
	ldr	r0, [sp, #52]           @ 4-byte Reload
	str	r0, [r2, #16]
	ldr	r0, [sp, #36]           @ 4-byte Reload
	str	r0, [r2, #20]
	ldm	r1, {r0, r4}
	ldr	r5, [r1, #12]
	ldr	r2, [r1, #8]
	umull	lr, r6, r5, r3
	umull	r5, r11, r2, r3
	umull	r2, r8, r4, r3
	str	r6, [sp, #52]           @ 4-byte Spill
	umull	r4, r6, r0, r3
	ldr	r0, [sp, #24]           @ 4-byte Reload
	adds	r0, r4, r0
	str	r0, [sp, #40]           @ 4-byte Spill
	ldr	r0, [sp, #32]           @ 4-byte Reload
	adcs	r9, r2, r9
	ldr	r2, [sp, #52]           @ 4-byte Reload
	adcs	r4, r5, r0
	ldr	r0, [r1, #16]
	ldr	r1, [r1, #20]
	adcs	r10, lr, r10
	umull	r7, lr, r0, r3
	adcs	r0, r7, r12
	umull	r7, r12, r1, r3
	ldr	r1, [sp, #44]           @ 4-byte Reload
	adcs	r1, r7, r1
	umull	r7, r5, r3, r3
	ldr	r3, [sp, #48]           @ 4-byte Reload
	adcs	r3, r7, r3
	mov	r7, #0
	adc	r7, r7, #0
	adds	r6, r9, r6
	adcs	r4, r4, r8
	adcs	r8, r10, r11
	adcs	r0, r0, r2
	adcs	r1, r1, lr
	adcs	r2, r3, r12
	adc	r3, r7, r5
	ldr	r7, [sp, #56]           @ 4-byte Reload
	ldr	r5, [sp, #40]           @ 4-byte Reload
	add	r12, r7, #40
	str	r5, [r7, #24]
	str	r6, [r7, #28]
	str	r4, [r7, #32]
	str	r8, [r7, #36]
	stm	r12, {r0, r1, r2, r3}
	add	sp, sp, #60
	pop	{r4, r5, r6, r7, r8, r9, r10, r11, lr}
	mov	pc, lr
.Lfunc_end97:
	.size	mcl_fpDbl_sqrPre7L, .Lfunc_end97-mcl_fpDbl_sqrPre7L
	.cantunwind
	.fnend

	.globl	mcl_fp_mont7L
	.align	2
	.type	mcl_fp_mont7L,%function
mcl_fp_mont7L:                          @ @mcl_fp_mont7L
	.fnstart
@ BB#0:
	.save	{r4, r5, r6, r7, r8, r9, r10, r11, lr}
	push	{r4, r5, r6, r7, r8, r9, r10, r11, lr}
	.pad	#124
	sub	sp, sp, #124
	str	r0, [sp, #56]           @ 4-byte Spill
	mov	r0, r2
	str	r2, [sp, #60]           @ 4-byte Spill
	ldm	r0, {r2, lr}
	ldr	r7, [r0, #8]
	ldr	r0, [r0, #12]
	ldr	r5, [r3, #-4]
	ldr	r6, [r3, #8]
	ldr	r9, [r3, #4]
	ldr	r11, [r1, #8]
	ldr	r12, [r1, #12]
	str	r7, [sp, #48]           @ 4-byte Spill
	ldr	r7, [r1, #4]
	str	r0, [sp, #52]           @ 4-byte Spill
	ldr	r0, [r1]
	str	r5, [sp, #80]           @ 4-byte Spill
	str	r6, [sp, #116]          @ 4-byte Spill
	str	r9, [sp, #108]          @ 4-byte Spill
	str	r11, [sp, #104]         @ 4-byte Spill
	str	r12, [sp, #72]          @ 4-byte Spill
	str	r7, [sp, #68]           @ 4-byte Spill
	ldr	r7, [r3]
	umull	r4, r8, r0, r2
	str	r0, [sp, #84]           @ 4-byte Spill
	mul	r0, r4, r5
	str	r4, [sp, #44]           @ 4-byte Spill
	umull	r10, r4, r0, r6
	str	r4, [sp, #32]           @ 4-byte Spill
	str	r10, [sp, #8]           @ 4-byte Spill
	umull	r4, r5, r0, r7
	str	r7, [sp, #112]          @ 4-byte Spill
	ldr	r7, [sp, #68]           @ 4-byte Reload
	str	r4, [sp, #40]           @ 4-byte Spill
	mov	r4, r5
	str	r5, [sp, #4]            @ 4-byte Spill
	umlal	r4, r10, r0, r9
	str	r4, [sp, #36]           @ 4-byte Spill
	ldr	r4, [r1, #24]
	umull	r6, r5, r4, r2
	str	r4, [sp, #88]           @ 4-byte Spill
	ldr	r4, [r1, #20]
	ldr	r1, [r1, #16]
	str	r6, [sp, #96]           @ 4-byte Spill
	str	r5, [sp, #120]          @ 4-byte Spill
	umull	r6, r5, r4, r2
	str	r4, [sp, #64]           @ 4-byte Spill
	umull	r9, r4, r1, r2
	str	r1, [sp, #100]          @ 4-byte Spill
	str	r6, [sp, #76]           @ 4-byte Spill
	str	r5, [sp, #92]           @ 4-byte Spill
	str	r4, [sp, #20]           @ 4-byte Spill
	umull	r6, r5, r12, r2
	umull	r12, r4, r11, r2
	umull	r11, r1, r7, r2
	adds	r7, r8, r11
	adcs	r7, r1, r12
	adcs	r1, r4, r6
	ldr	r4, [sp, #20]           @ 4-byte Reload
	ldr	r6, [sp, #108]          @ 4-byte Reload
	str	r1, [sp, #28]           @ 4-byte Spill
	adcs	r1, r5, r9
	ldr	r5, [r3, #12]
	str	r1, [sp, #24]           @ 4-byte Spill
	ldr	r1, [sp, #76]           @ 4-byte Reload
	str	r5, [sp, #76]           @ 4-byte Spill
	adcs	r1, r4, r1
	ldr	r4, [sp, #92]           @ 4-byte Reload
	str	r1, [sp, #20]           @ 4-byte Spill
	ldr	r1, [sp, #96]           @ 4-byte Reload
	adcs	r1, r4, r1
	str	r1, [sp, #16]           @ 4-byte Spill
	ldr	r1, [sp, #120]          @ 4-byte Reload
	adc	r1, r1, #0
	str	r1, [sp, #12]           @ 4-byte Spill
	ldr	r1, [r3, #24]
	umull	r9, r4, r0, r1
	str	r1, [sp, #96]           @ 4-byte Spill
	ldr	r1, [r3, #16]
	str	r4, [sp]                @ 4-byte Spill
	ldr	r4, [r3, #20]
	umull	r3, r7, r0, r6
	ldr	r6, [sp, #4]            @ 4-byte Reload
	str	r1, [sp, #120]          @ 4-byte Spill
	adds	r3, r6, r3
	str	r4, [sp, #92]           @ 4-byte Spill
	umull	r3, r6, r0, r5
	ldr	r5, [sp, #8]            @ 4-byte Reload
	adcs	r7, r7, r5
	ldr	r5, [sp, #32]           @ 4-byte Reload
	adcs	r11, r5, r3
	umull	r7, r5, r0, r1
	adcs	r1, r6, r7
	umull	r7, r3, r0, r4
	ldr	r4, [sp]                @ 4-byte Reload
	ldr	r6, [sp, #40]           @ 4-byte Reload
	adcs	r0, r5, r7
	ldr	r5, [sp, #68]           @ 4-byte Reload
	adcs	r3, r3, r9
	adc	r7, r4, #0
	mov	r4, #0
	umlal	r8, r12, r5, r2
	ldr	r2, [sp, #44]           @ 4-byte Reload
	adds	r2, r6, r2
	mov	r6, r5
	ldr	r2, [sp, #36]           @ 4-byte Reload
	adcs	r2, r2, r8
	str	r2, [sp, #44]           @ 4-byte Spill
	adcs	r2, r10, r12
	ldr	r10, [sp, #84]          @ 4-byte Reload
	str	r2, [sp, #40]           @ 4-byte Spill
	ldr	r2, [sp, #28]           @ 4-byte Reload
	adcs	r2, r11, r2
	str	r2, [sp, #36]           @ 4-byte Spill
	ldr	r2, [sp, #24]           @ 4-byte Reload
	adcs	r1, r1, r2
	str	r1, [sp, #32]           @ 4-byte Spill
	ldr	r1, [sp, #20]           @ 4-byte Reload
	adcs	r0, r0, r1
	str	r0, [sp, #28]           @ 4-byte Spill
	ldr	r0, [sp, #16]           @ 4-byte Reload
	adcs	r0, r3, r0
	umull	r2, r3, lr, r5
	ldr	r5, [sp, #72]           @ 4-byte Reload
	str	r0, [sp, #24]           @ 4-byte Spill
	ldr	r0, [sp, #12]           @ 4-byte Reload
	adcs	r0, r7, r0
	str	r0, [sp, #20]           @ 4-byte Spill
	adc	r0, r4, #0
	str	r0, [sp, #16]           @ 4-byte Spill
	ldr	r0, [sp, #88]           @ 4-byte Reload
	umull	r12, r9, lr, r0
	ldr	r0, [sp, #100]          @ 4-byte Reload
	umull	r8, r4, lr, r0
	ldr	r0, [sp, #104]          @ 4-byte Reload
	umull	r1, r7, lr, r0
	umull	r11, r0, lr, r10
	adds	r2, r0, r2
	adcs	r2, r3, r1
	umlal	r0, r1, lr, r6
	ldr	r6, [sp, #40]           @ 4-byte Reload
	umull	r2, r3, lr, r5
	adcs	r2, r7, r2
	adcs	r10, r3, r8
	ldr	r8, [sp, #64]           @ 4-byte Reload
	umull	r7, r3, lr, r8
	adcs	r4, r4, r7
	ldr	r7, [sp, #44]           @ 4-byte Reload
	adcs	r3, r3, r12
	adc	r5, r9, #0
	adds	r7, r7, r11
	adcs	r0, r6, r0
	ldr	r6, [sp, #108]          @ 4-byte Reload
	str	r0, [sp, #44]           @ 4-byte Spill
	ldr	r0, [sp, #36]           @ 4-byte Reload
	adcs	r0, r0, r1
	ldr	r1, [sp, #80]           @ 4-byte Reload
	str	r0, [sp, #40]           @ 4-byte Spill
	ldr	r0, [sp, #32]           @ 4-byte Reload
	adcs	r0, r0, r2
	str	r0, [sp, #36]           @ 4-byte Spill
	ldr	r0, [sp, #28]           @ 4-byte Reload
	adcs	r0, r0, r10
	ldr	r10, [sp, #96]          @ 4-byte Reload
	str	r0, [sp, #32]           @ 4-byte Spill
	ldr	r0, [sp, #24]           @ 4-byte Reload
	adcs	r0, r0, r4
	str	r0, [sp, #28]           @ 4-byte Spill
	ldr	r0, [sp, #20]           @ 4-byte Reload
	adcs	r0, r0, r3
	str	r0, [sp, #24]           @ 4-byte Spill
	ldr	r0, [sp, #16]           @ 4-byte Reload
	adcs	r0, r0, r5
	str	r0, [sp, #20]           @ 4-byte Spill
	mov	r0, #0
	adc	r0, r0, #0
	str	r0, [sp, #16]           @ 4-byte Spill
	mul	r0, r7, r1
	ldr	r1, [sp, #116]          @ 4-byte Reload
	umull	lr, r12, r0, r6
	umull	r3, r4, r0, r1
	ldr	r1, [sp, #112]          @ 4-byte Reload
	mov	r2, r3
	umull	r9, r5, r0, r1
	mov	r1, r5
	adds	r5, r5, lr
	umlal	r1, r2, r0, r6
	ldr	r6, [sp, #120]          @ 4-byte Reload
	adcs	r3, r12, r3
	umull	r5, lr, r0, r6
	ldr	r6, [sp, #76]           @ 4-byte Reload
	umull	r3, r12, r0, r6
	ldr	r6, [sp, #92]           @ 4-byte Reload
	adcs	r3, r4, r3
	adcs	r12, r12, r5
	umull	r4, r5, r0, r6
	adcs	lr, lr, r4
	umull	r6, r4, r0, r10
	adcs	r0, r5, r6
	adc	r4, r4, #0
	adds	r5, r9, r7
	ldr	r9, [sp, #84]           @ 4-byte Reload
	ldr	r5, [sp, #44]           @ 4-byte Reload
	adcs	r1, r1, r5
	str	r1, [sp, #44]           @ 4-byte Spill
	ldr	r1, [sp, #40]           @ 4-byte Reload
	adcs	r1, r2, r1
	str	r1, [sp, #40]           @ 4-byte Spill
	ldr	r1, [sp, #36]           @ 4-byte Reload
	adcs	r1, r3, r1
	ldr	r3, [sp, #68]           @ 4-byte Reload
	str	r1, [sp, #36]           @ 4-byte Spill
	ldr	r1, [sp, #32]           @ 4-byte Reload
	adcs	r1, r12, r1
	ldr	r12, [sp, #48]          @ 4-byte Reload
	str	r1, [sp, #32]           @ 4-byte Spill
	ldr	r1, [sp, #28]           @ 4-byte Reload
	adcs	r1, lr, r1
	str	r1, [sp, #28]           @ 4-byte Spill
	ldr	r1, [sp, #24]           @ 4-byte Reload
	adcs	r0, r0, r1
	str	r0, [sp, #24]           @ 4-byte Spill
	ldr	r0, [sp, #20]           @ 4-byte Reload
	adcs	r0, r4, r0
	str	r0, [sp, #20]           @ 4-byte Spill
	ldr	r0, [sp, #16]           @ 4-byte Reload
	adc	r0, r0, #0
	str	r0, [sp, #16]           @ 4-byte Spill
	ldr	r0, [sp, #88]           @ 4-byte Reload
	umull	r2, r1, r12, r0
	umull	r10, r0, r12, r8
	str	r0, [sp, #4]            @ 4-byte Spill
	ldr	r0, [sp, #100]          @ 4-byte Reload
	str	r2, [sp, #8]            @ 4-byte Spill
	str	r1, [sp, #12]           @ 4-byte Spill
	umull	r2, lr, r12, r3
	umull	r7, r8, r12, r0
	ldr	r0, [sp, #72]           @ 4-byte Reload
	umull	r5, r6, r12, r0
	ldr	r0, [sp, #104]          @ 4-byte Reload
	umull	r1, r4, r12, r0
	umull	r11, r0, r12, r9
	adds	r2, r0, r2
	str	r11, [sp]               @ 4-byte Spill
	adcs	r2, lr, r1
	umlal	r0, r1, r12, r3
	adcs	lr, r4, r5
	ldmib	sp, {r4, r5}
	ldr	r3, [sp, #44]           @ 4-byte Reload
	ldr	r2, [sp]                @ 4-byte Reload
	adcs	r7, r6, r7
	adcs	r6, r8, r10
	adcs	r4, r4, r5
	ldr	r5, [sp, #12]           @ 4-byte Reload
	adc	r5, r5, #0
	adds	r9, r3, r2
	ldr	r3, [sp, #40]           @ 4-byte Reload
	adcs	r0, r3, r0
	str	r0, [sp, #48]           @ 4-byte Spill
	ldr	r0, [sp, #36]           @ 4-byte Reload
	adcs	r0, r0, r1
	ldr	r1, [sp, #80]           @ 4-byte Reload
	str	r0, [sp, #44]           @ 4-byte Spill
	ldr	r0, [sp, #32]           @ 4-byte Reload
	adcs	r0, r0, lr
	str	r0, [sp, #40]           @ 4-byte Spill
	ldr	r0, [sp, #28]           @ 4-byte Reload
	adcs	r0, r0, r7
	str	r0, [sp, #36]           @ 4-byte Spill
	ldr	r0, [sp, #24]           @ 4-byte Reload
	adcs	r0, r0, r6
	ldr	r6, [sp, #108]          @ 4-byte Reload
	str	r0, [sp, #32]           @ 4-byte Spill
	ldr	r0, [sp, #20]           @ 4-byte Reload
	adcs	r0, r0, r4
	str	r0, [sp, #28]           @ 4-byte Spill
	ldr	r0, [sp, #16]           @ 4-byte Reload
	adcs	r0, r0, r5
	str	r0, [sp, #24]           @ 4-byte Spill
	mov	r0, #0
	adc	r0, r0, #0
	str	r0, [sp, #20]           @ 4-byte Spill
	mul	r0, r9, r1
	ldr	r1, [sp, #116]          @ 4-byte Reload
	umull	r3, r2, r0, r1
	str	r2, [sp, #12]           @ 4-byte Spill
	ldr	r2, [sp, #112]          @ 4-byte Reload
	umull	r7, r1, r0, r2
	mov	r2, r3
	str	r7, [sp, #16]           @ 4-byte Spill
	ldr	r7, [sp, #96]           @ 4-byte Reload
	mov	r5, r1
	umlal	r5, r2, r0, r6
	umull	r10, r4, r0, r7
	ldr	r7, [sp, #92]           @ 4-byte Reload
	str	r4, [sp, #8]            @ 4-byte Spill
	umull	r12, r8, r0, r7
	ldr	r7, [sp, #120]          @ 4-byte Reload
	umull	lr, r4, r0, r7
	umull	r11, r7, r0, r6
	ldr	r6, [sp, #8]            @ 4-byte Reload
	adds	r1, r1, r11
	ldr	r11, [sp, #76]          @ 4-byte Reload
	adcs	r1, r7, r3
	umull	r1, r3, r0, r11
	ldr	r0, [sp, #12]           @ 4-byte Reload
	adcs	r0, r0, r1
	adcs	r1, r3, lr
	adcs	r3, r4, r12
	ldr	r4, [sp, #16]           @ 4-byte Reload
	adcs	r7, r8, r10
	ldr	r10, [sp, #52]          @ 4-byte Reload
	ldr	r8, [sp, #64]           @ 4-byte Reload
	adc	r6, r6, #0
	adds	r4, r4, r9
	ldr	r9, [sp, #72]           @ 4-byte Reload
	ldr	r4, [sp, #48]           @ 4-byte Reload
	adcs	r5, r5, r4
	str	r5, [sp, #48]           @ 4-byte Spill
	ldr	r5, [sp, #44]           @ 4-byte Reload
	adcs	r2, r2, r5
	str	r2, [sp, #44]           @ 4-byte Spill
	ldr	r2, [sp, #40]           @ 4-byte Reload
	adcs	r0, r0, r2
	str	r0, [sp, #40]           @ 4-byte Spill
	ldr	r0, [sp, #36]           @ 4-byte Reload
	adcs	r0, r1, r0
	str	r0, [sp, #36]           @ 4-byte Spill
	ldr	r0, [sp, #32]           @ 4-byte Reload
	adcs	r0, r3, r0
	str	r0, [sp, #32]           @ 4-byte Spill
	ldr	r0, [sp, #28]           @ 4-byte Reload
	adcs	r0, r7, r0
	ldr	r7, [sp, #84]           @ 4-byte Reload
	str	r0, [sp, #28]           @ 4-byte Spill
	ldr	r0, [sp, #24]           @ 4-byte Reload
	umull	r4, r5, r10, r7
	adcs	r0, r6, r0
	str	r4, [sp, #16]           @ 4-byte Spill
	str	r0, [sp, #24]           @ 4-byte Spill
	ldr	r0, [sp, #20]           @ 4-byte Reload
	adc	r0, r0, #0
	str	r0, [sp, #20]           @ 4-byte Spill
	ldr	r0, [sp, #104]          @ 4-byte Reload
	umull	r1, r6, r10, r0
	ldr	r0, [sp, #68]           @ 4-byte Reload
	umull	r2, r3, r10, r0
	adds	r2, r5, r2
	adcs	r2, r3, r1
	umull	r2, r3, r10, r9
	adcs	r7, r6, r2
	ldr	r6, [sp, #100]          @ 4-byte Reload
	umull	r2, r12, r10, r6
	adcs	r6, r3, r2
	umull	r3, lr, r10, r8
	mov	r2, r10
	ldr	r10, [sp, #88]          @ 4-byte Reload
	adcs	r4, r12, r3
	umlal	r5, r1, r2, r0
	umull	r3, r12, r2, r10
	mov	r10, r0
	ldr	r0, [sp, #48]           @ 4-byte Reload
	ldr	r2, [sp, #16]           @ 4-byte Reload
	adcs	r3, lr, r3
	adc	r12, r12, #0
	adds	lr, r0, r2
	ldr	r0, [sp, #44]           @ 4-byte Reload
	adcs	r0, r0, r5
	str	r0, [sp, #52]           @ 4-byte Spill
	ldr	r0, [sp, #40]           @ 4-byte Reload
	adcs	r0, r0, r1
	ldr	r1, [sp, #80]           @ 4-byte Reload
	str	r0, [sp, #48]           @ 4-byte Spill
	ldr	r0, [sp, #36]           @ 4-byte Reload
	adcs	r0, r0, r7
	ldr	r7, [sp, #108]          @ 4-byte Reload
	str	r0, [sp, #44]           @ 4-byte Spill
	ldr	r0, [sp, #32]           @ 4-byte Reload
	adcs	r0, r0, r6
	str	r0, [sp, #40]           @ 4-byte Spill
	ldr	r0, [sp, #28]           @ 4-byte Reload
	adcs	r0, r0, r4
	str	r0, [sp, #36]           @ 4-byte Spill
	ldr	r0, [sp, #24]           @ 4-byte Reload
	adcs	r0, r0, r3
	str	r0, [sp, #32]           @ 4-byte Spill
	ldr	r0, [sp, #20]           @ 4-byte Reload
	adcs	r0, r0, r12
	str	r0, [sp, #28]           @ 4-byte Spill
	mov	r0, #0
	adc	r0, r0, #0
	str	r0, [sp, #24]           @ 4-byte Spill
	mul	r0, lr, r1
	ldr	r1, [sp, #116]          @ 4-byte Reload
	umull	r5, r12, r0, r7
	umull	r3, r6, r0, r1
	ldr	r1, [sp, #112]          @ 4-byte Reload
	umull	r2, r4, r0, r1
	str	r2, [sp, #20]           @ 4-byte Spill
	mov	r1, r4
	mov	r2, r3
	adds	r4, r4, r5
	umlal	r1, r2, r0, r7
	ldr	r7, [sp, #120]          @ 4-byte Reload
	adcs	r3, r12, r3
	umull	r3, r12, r0, r11
	adcs	r11, r6, r3
	ldr	r3, [sp, #92]           @ 4-byte Reload
	umull	r4, r5, r0, r7
	ldr	r7, [sp, #96]           @ 4-byte Reload
	adcs	r12, r12, r4
	umull	r4, r6, r0, r3
	adcs	r4, r5, r4
	umull	r5, r3, r0, r7
	ldr	r7, [sp, #52]           @ 4-byte Reload
	adcs	r0, r6, r5
	ldr	r5, [sp, #20]           @ 4-byte Reload
	adc	r3, r3, #0
	adds	r6, r5, lr
	adcs	r1, r1, r7
	ldr	r7, [sp, #104]          @ 4-byte Reload
	str	r1, [sp, #52]           @ 4-byte Spill
	ldr	r1, [sp, #48]           @ 4-byte Reload
	adcs	r1, r2, r1
	str	r1, [sp, #48]           @ 4-byte Spill
	ldr	r1, [sp, #44]           @ 4-byte Reload
	adcs	r1, r11, r1
	str	r1, [sp, #44]           @ 4-byte Spill
	ldr	r1, [sp, #40]           @ 4-byte Reload
	adcs	r1, r12, r1
	str	r1, [sp, #40]           @ 4-byte Spill
	ldr	r1, [sp, #36]           @ 4-byte Reload
	adcs	r11, r4, r1
	ldr	r1, [sp, #32]           @ 4-byte Reload
	adcs	r0, r0, r1
	ldr	r1, [sp, #84]           @ 4-byte Reload
	str	r0, [sp, #36]           @ 4-byte Spill
	ldr	r0, [sp, #28]           @ 4-byte Reload
	adcs	r0, r3, r0
	str	r0, [sp, #32]           @ 4-byte Spill
	ldr	r0, [sp, #24]           @ 4-byte Reload
	adc	r0, r0, #0
	str	r0, [sp, #28]           @ 4-byte Spill
	ldr	r0, [sp, #60]           @ 4-byte Reload
	ldr	r0, [r0, #16]
	umull	lr, r6, r0, r8
	umull	r5, r3, r0, r10
	umull	r8, r2, r0, r1
	umull	r12, r4, r0, r9
	adds	r5, r2, r5
	umull	r1, r5, r0, r7
	ldr	r7, [sp, #100]          @ 4-byte Reload
	adcs	r3, r3, r1
	umlal	r2, r1, r0, r10
	adcs	r9, r5, r12
	umull	r5, r3, r0, r7
	ldr	r7, [sp, #108]          @ 4-byte Reload
	adcs	r12, r4, r5
	ldr	r4, [sp, #88]           @ 4-byte Reload
	adcs	lr, r3, lr
	umull	r5, r3, r0, r4
	ldr	r0, [sp, #52]           @ 4-byte Reload
	adcs	r5, r6, r5
	adc	r3, r3, #0
	adds	r4, r0, r8
	ldr	r0, [sp, #48]           @ 4-byte Reload
	adcs	r0, r0, r2
	str	r0, [sp, #52]           @ 4-byte Spill
	ldr	r0, [sp, #44]           @ 4-byte Reload
	adcs	r0, r0, r1
	str	r0, [sp, #48]           @ 4-byte Spill
	ldr	r0, [sp, #40]           @ 4-byte Reload
	adcs	r0, r0, r9
	str	r0, [sp, #44]           @ 4-byte Spill
	adcs	r0, r11, r12
	ldr	r11, [sp, #80]          @ 4-byte Reload
	str	r0, [sp, #40]           @ 4-byte Spill
	ldr	r0, [sp, #36]           @ 4-byte Reload
	mul	r1, r4, r11
	adcs	r0, r0, lr
	umull	lr, r12, r1, r7
	str	r0, [sp, #36]           @ 4-byte Spill
	ldr	r0, [sp, #32]           @ 4-byte Reload
	adcs	r0, r0, r5
	str	r0, [sp, #32]           @ 4-byte Spill
	ldr	r0, [sp, #28]           @ 4-byte Reload
	adcs	r0, r0, r3
	str	r0, [sp, #28]           @ 4-byte Spill
	mov	r0, #0
	adc	r0, r0, #0
	str	r0, [sp, #24]           @ 4-byte Spill
	ldr	r0, [sp, #116]          @ 4-byte Reload
	umull	r2, r6, r1, r0
	ldr	r0, [sp, #112]          @ 4-byte Reload
	mov	r3, r2
	umull	r8, r5, r1, r0
	mov	r0, r5
	adds	r5, r5, lr
	umlal	r0, r3, r1, r7
	ldr	r7, [sp, #120]          @ 4-byte Reload
	adcs	r2, r12, r2
	umull	r5, lr, r1, r7
	ldr	r7, [sp, #76]           @ 4-byte Reload
	umull	r2, r12, r1, r7
	ldr	r7, [sp, #92]           @ 4-byte Reload
	adcs	r9, r6, r2
	ldr	r2, [sp, #96]           @ 4-byte Reload
	adcs	r12, r12, r5
	umull	r5, r6, r1, r7
	adcs	lr, lr, r5
	umull	r7, r5, r1, r2
	ldr	r2, [sp, #52]           @ 4-byte Reload
	adcs	r1, r6, r7
	ldr	r7, [sp, #104]          @ 4-byte Reload
	adc	r5, r5, #0
	adds	r4, r8, r4
	adcs	r0, r0, r2
	str	r0, [sp, #52]           @ 4-byte Spill
	ldr	r0, [sp, #48]           @ 4-byte Reload
	adcs	r0, r3, r0
	str	r0, [sp, #48]           @ 4-byte Spill
	ldr	r0, [sp, #44]           @ 4-byte Reload
	adcs	r0, r9, r0
	str	r0, [sp, #44]           @ 4-byte Spill
	ldr	r0, [sp, #40]           @ 4-byte Reload
	adcs	r0, r12, r0
	mov	r12, r10
	str	r0, [sp, #40]           @ 4-byte Spill
	ldr	r0, [sp, #36]           @ 4-byte Reload
	adcs	r0, lr, r0
	str	r0, [sp, #36]           @ 4-byte Spill
	ldr	r0, [sp, #32]           @ 4-byte Reload
	adcs	r0, r1, r0
	ldr	r1, [sp, #64]           @ 4-byte Reload
	str	r0, [sp, #32]           @ 4-byte Spill
	ldr	r0, [sp, #28]           @ 4-byte Reload
	adcs	r0, r5, r0
	str	r0, [sp, #28]           @ 4-byte Spill
	ldr	r0, [sp, #24]           @ 4-byte Reload
	adc	r0, r0, #0
	str	r0, [sp, #24]           @ 4-byte Spill
	ldr	r0, [sp, #60]           @ 4-byte Reload
	ldr	r0, [r0, #20]
	umull	lr, r8, r0, r1
	ldr	r1, [sp, #72]           @ 4-byte Reload
	umull	r6, r3, r0, r12
	umull	r4, r5, r0, r1
	ldr	r1, [sp, #84]           @ 4-byte Reload
	umull	r10, r2, r0, r1
	adds	r6, r2, r6
	umull	r1, r6, r0, r7
	ldr	r7, [sp, #88]           @ 4-byte Reload
	adcs	r3, r3, r1
	umlal	r2, r1, r0, r12
	ldr	r3, [sp, #100]          @ 4-byte Reload
	adcs	r9, r6, r4
	umull	r4, r6, r0, r3
	adcs	r4, r5, r4
	adcs	r3, r6, lr
	umull	r5, r6, r0, r7
	ldr	r0, [sp, #52]           @ 4-byte Reload
	ldr	r7, [sp, #108]          @ 4-byte Reload
	adcs	r5, r8, r5
	adc	r6, r6, #0
	adds	lr, r0, r10
	ldr	r0, [sp, #48]           @ 4-byte Reload
	adcs	r10, r0, r2
	ldr	r0, [sp, #44]           @ 4-byte Reload
	adcs	r0, r0, r1
	mul	r1, lr, r11
	ldr	r11, [sp, #84]          @ 4-byte Reload
	str	r0, [sp, #52]           @ 4-byte Spill
	ldr	r0, [sp, #40]           @ 4-byte Reload
	adcs	r0, r0, r9
	str	r0, [sp, #48]           @ 4-byte Spill
	ldr	r0, [sp, #36]           @ 4-byte Reload
	adcs	r0, r0, r4
	str	r0, [sp, #44]           @ 4-byte Spill
	ldr	r0, [sp, #32]           @ 4-byte Reload
	adcs	r0, r0, r3
	str	r0, [sp, #40]           @ 4-byte Spill
	ldr	r0, [sp, #28]           @ 4-byte Reload
	adcs	r0, r0, r5
	str	r0, [sp, #36]           @ 4-byte Spill
	ldr	r0, [sp, #24]           @ 4-byte Reload
	adcs	r0, r0, r6
	umull	r6, r12, r1, r7
	str	r0, [sp, #32]           @ 4-byte Spill
	mov	r0, #0
	adc	r0, r0, #0
	str	r0, [sp, #28]           @ 4-byte Spill
	ldr	r0, [sp, #116]          @ 4-byte Reload
	umull	r3, r4, r1, r0
	ldr	r0, [sp, #112]          @ 4-byte Reload
	mov	r2, r3
	umull	r8, r5, r1, r0
	mov	r0, r5
	adds	r5, r5, r6
	umlal	r0, r2, r1, r7
	ldr	r7, [sp, #120]          @ 4-byte Reload
	adcs	r3, r12, r3
	umull	r5, r6, r1, r7
	ldr	r7, [sp, #76]           @ 4-byte Reload
	umull	r3, r12, r1, r7
	ldr	r7, [sp, #96]           @ 4-byte Reload
	adcs	r9, r4, r3
	ldr	r3, [sp, #92]           @ 4-byte Reload
	adcs	r12, r12, r5
	umull	r4, r5, r1, r3
	adcs	r4, r6, r4
	umull	r6, r3, r1, r7
	adcs	r1, r5, r6
	adc	r3, r3, #0
	adds	r6, r8, lr
	adcs	r0, r0, r10
	str	r0, [sp, #24]           @ 4-byte Spill
	ldr	r0, [sp, #52]           @ 4-byte Reload
	adcs	r0, r2, r0
	str	r0, [sp, #52]           @ 4-byte Spill
	ldr	r0, [sp, #48]           @ 4-byte Reload
	adcs	r0, r9, r0
	str	r0, [sp, #48]           @ 4-byte Spill
	ldr	r0, [sp, #44]           @ 4-byte Reload
	adcs	r0, r12, r0
	ldr	r12, [sp, #68]          @ 4-byte Reload
	str	r0, [sp, #44]           @ 4-byte Spill
	ldr	r0, [sp, #40]           @ 4-byte Reload
	adcs	r0, r4, r0
	str	r0, [sp, #40]           @ 4-byte Spill
	ldr	r0, [sp, #36]           @ 4-byte Reload
	adcs	r0, r1, r0
	ldr	r1, [sp, #88]           @ 4-byte Reload
	str	r0, [sp, #36]           @ 4-byte Spill
	ldr	r0, [sp, #32]           @ 4-byte Reload
	adcs	r0, r3, r0
	str	r0, [sp, #32]           @ 4-byte Spill
	ldr	r0, [sp, #28]           @ 4-byte Reload
	adc	r0, r0, #0
	str	r0, [sp, #28]           @ 4-byte Spill
	ldr	r0, [sp, #60]           @ 4-byte Reload
	ldr	r0, [r0, #24]
	umull	r3, r2, r0, r1
	ldr	r1, [sp, #64]           @ 4-byte Reload
	str	r2, [sp, #60]           @ 4-byte Spill
	str	r3, [sp, #20]           @ 4-byte Spill
	umull	r3, lr, r0, r12
	umull	r9, r2, r0, r1
	ldr	r1, [sp, #100]          @ 4-byte Reload
	str	r2, [sp, #88]           @ 4-byte Spill
	umull	r7, r8, r0, r1
	ldr	r1, [sp, #72]           @ 4-byte Reload
	umull	r5, r6, r0, r1
	ldr	r1, [sp, #104]          @ 4-byte Reload
	umull	r2, r4, r0, r1
	umull	r10, r1, r0, r11
	ldr	r11, [sp, #92]          @ 4-byte Reload
	adds	r3, r1, r3
	str	r10, [sp, #104]         @ 4-byte Spill
	ldr	r10, [sp, #96]          @ 4-byte Reload
	adcs	r3, lr, r2
	umlal	r1, r2, r0, r12
	ldr	r0, [sp, #24]           @ 4-byte Reload
	adcs	lr, r4, r5
	ldr	r5, [sp, #20]           @ 4-byte Reload
	ldr	r3, [sp, #88]           @ 4-byte Reload
	ldr	r4, [sp, #60]           @ 4-byte Reload
	adcs	r6, r6, r7
	adcs	r7, r8, r9
	ldr	r8, [sp, #108]          @ 4-byte Reload
	adcs	r5, r3, r5
	ldr	r3, [sp, #104]          @ 4-byte Reload
	adc	r4, r4, #0
	adds	r9, r0, r3
	ldr	r0, [sp, #52]           @ 4-byte Reload
	adcs	r0, r0, r1
	str	r0, [sp, #104]          @ 4-byte Spill
	ldr	r0, [sp, #48]           @ 4-byte Reload
	adcs	r0, r0, r2
	str	r0, [sp, #100]          @ 4-byte Spill
	ldr	r0, [sp, #44]           @ 4-byte Reload
	adcs	r0, r0, lr
	ldr	lr, [sp, #76]           @ 4-byte Reload
	str	r0, [sp, #88]           @ 4-byte Spill
	ldr	r0, [sp, #40]           @ 4-byte Reload
	adcs	r0, r0, r6
	str	r0, [sp, #84]           @ 4-byte Spill
	ldr	r0, [sp, #36]           @ 4-byte Reload
	adcs	r0, r0, r7
	ldr	r7, [sp, #116]          @ 4-byte Reload
	str	r0, [sp, #72]           @ 4-byte Spill
	ldr	r0, [sp, #32]           @ 4-byte Reload
	adcs	r0, r0, r5
	str	r0, [sp, #68]           @ 4-byte Spill
	ldr	r0, [sp, #28]           @ 4-byte Reload
	adcs	r0, r0, r4
	str	r0, [sp, #64]           @ 4-byte Spill
	mov	r0, #0
	adc	r0, r0, #0
	str	r0, [sp, #60]           @ 4-byte Spill
	ldr	r0, [sp, #80]           @ 4-byte Reload
	mul	r1, r9, r0
	ldr	r0, [sp, #112]          @ 4-byte Reload
	umull	r2, r3, r1, r8
	umull	r4, r5, r1, r0
	adds	r2, r5, r2
	umull	r0, r2, r1, r7
	ldr	r7, [sp, #120]          @ 4-byte Reload
	adcs	r3, r3, r0
	umull	r3, r12, r1, lr
	adcs	r6, r2, r3
	umull	r3, r2, r1, r7
	adcs	r12, r12, r3
	umull	r7, r3, r1, r11
	adcs	r2, r2, r7
	str	r2, [sp, #80]           @ 4-byte Spill
	umull	r7, r2, r1, r10
	adcs	r3, r3, r7
	mov	r7, r8
	umlal	r5, r0, r1, r7
	adc	r1, r2, #0
	adds	r2, r4, r9
	ldr	r2, [sp, #104]          @ 4-byte Reload
	adcs	r8, r5, r2
	ldr	r2, [sp, #100]          @ 4-byte Reload
	ldr	r5, [sp, #116]          @ 4-byte Reload
	adcs	r9, r0, r2
	ldr	r0, [sp, #88]           @ 4-byte Reload
	ldr	r2, [sp, #80]           @ 4-byte Reload
	adcs	r4, r6, r0
	ldr	r0, [sp, #84]           @ 4-byte Reload
	str	r4, [sp, #88]           @ 4-byte Spill
	adcs	r6, r12, r0
	ldr	r0, [sp, #72]           @ 4-byte Reload
	str	r6, [sp, #100]          @ 4-byte Spill
	adcs	r12, r2, r0
	ldr	r0, [sp, #68]           @ 4-byte Reload
	adcs	r2, r3, r0
	ldr	r0, [sp, #64]           @ 4-byte Reload
	str	r2, [sp, #104]          @ 4-byte Spill
	adcs	r0, r1, r0
	ldr	r1, [sp, #60]           @ 4-byte Reload
	adc	r1, r1, #0
	str	r1, [sp, #84]           @ 4-byte Spill
	ldr	r1, [sp, #112]          @ 4-byte Reload
	subs	r1, r8, r1
	sbcs	r3, r9, r7
	ldr	r7, [sp, #120]          @ 4-byte Reload
	sbcs	r5, r4, r5
	sbcs	r6, r6, lr
	sbcs	r4, r12, r7
	sbcs	r11, r2, r11
	ldr	r2, [sp, #84]           @ 4-byte Reload
	sbcs	lr, r0, r10
	sbc	r7, r2, #0
	ldr	r2, [sp, #56]           @ 4-byte Reload
	ands	r7, r7, #1
	movne	r1, r8
	movne	r3, r9
	str	r1, [r2]
	ldr	r1, [sp, #88]           @ 4-byte Reload
	str	r3, [r2, #4]
	movne	r5, r1
	ldr	r1, [sp, #100]          @ 4-byte Reload
	cmp	r7, #0
	movne	r4, r12
	str	r5, [r2, #8]
	movne	r6, r1
	ldr	r1, [sp, #104]          @ 4-byte Reload
	str	r6, [r2, #12]
	str	r4, [r2, #16]
	movne	r11, r1
	cmp	r7, #0
	movne	lr, r0
	str	r11, [r2, #20]
	str	lr, [r2, #24]
	add	sp, sp, #124
	pop	{r4, r5, r6, r7, r8, r9, r10, r11, lr}
	mov	pc, lr
.Lfunc_end98:
	.size	mcl_fp_mont7L, .Lfunc_end98-mcl_fp_mont7L
	.cantunwind
	.fnend

	.globl	mcl_fp_montNF7L
	.align	2
	.type	mcl_fp_montNF7L,%function
mcl_fp_montNF7L:                        @ @mcl_fp_montNF7L
	.fnstart
@ BB#0:
	.save	{r4, r5, r6, r7, r8, r9, r10, r11, lr}
	push	{r4, r5, r6, r7, r8, r9, r10, r11, lr}
	.pad	#104
	sub	sp, sp, #104
	str	r0, [sp, #36]           @ 4-byte Spill
	mov	r0, r2
	str	r2, [sp, #40]           @ 4-byte Spill
	ldm	r0, {r4, r12}
	ldr	r6, [r1, #4]
	ldr	r2, [r0, #8]
	ldr	r7, [r1]
	ldr	r0, [r0, #12]
	ldr	r5, [r1, #8]
	str	r0, [sp, #32]           @ 4-byte Spill
	ldr	r0, [r1, #12]
	umull	r9, r8, r6, r4
	umull	lr, r10, r7, r4
	str	r6, [sp, #52]           @ 4-byte Spill
	mov	r11, r6
	str	r7, [sp, #96]           @ 4-byte Spill
	str	r5, [sp, #80]           @ 4-byte Spill
	str	r2, [sp]                @ 4-byte Spill
	adds	r6, r10, r9
	umull	r6, r9, r5, r4
	ldr	r5, [r1, #20]
	adcs	r7, r8, r6
	umlal	r10, r6, r11, r4
	umull	r7, r8, r0, r4
	str	r0, [sp, #48]           @ 4-byte Spill
	adcs	r0, r9, r7
	str	r0, [sp, #88]           @ 4-byte Spill
	ldr	r0, [r1, #16]
	str	r5, [sp, #44]           @ 4-byte Spill
	umull	r7, r9, r0, r4
	str	r0, [sp, #64]           @ 4-byte Spill
	adcs	r0, r8, r7
	str	r0, [sp, #84]           @ 4-byte Spill
	umull	r7, r0, r5, r4
	adcs	r5, r9, r7
	ldr	r7, [r3, #4]
	str	r5, [sp, #76]           @ 4-byte Spill
	ldr	r5, [r1, #24]
	str	r7, [sp, #72]           @ 4-byte Spill
	umull	r1, r9, r5, r4
	str	r5, [sp, #68]           @ 4-byte Spill
	ldr	r5, [r3]
	adcs	r0, r0, r1
	ldr	r1, [r3, #-4]
	str	r0, [sp, #28]           @ 4-byte Spill
	adc	r0, r9, #0
	ldr	r9, [r3, #8]
	str	r0, [sp, #24]           @ 4-byte Spill
	str	r5, [sp, #56]           @ 4-byte Spill
	mul	r0, lr, r1
	str	r1, [sp, #60]           @ 4-byte Spill
	umull	r1, r2, r0, r5
	str	r9, [sp, #100]          @ 4-byte Spill
	adds	r1, r1, lr
	str	r2, [sp, #20]           @ 4-byte Spill
	umull	r1, lr, r0, r7
	adcs	r11, r1, r10
	umull	r5, r1, r0, r9
	str	r1, [sp, #16]           @ 4-byte Spill
	ldr	r1, [r3, #12]
	adcs	r9, r5, r6
	str	r1, [sp, #92]           @ 4-byte Spill
	umull	r5, r10, r0, r1
	ldr	r1, [sp, #88]           @ 4-byte Reload
	adcs	r7, r5, r1
	ldr	r1, [r3, #16]
	str	r1, [sp, #88]           @ 4-byte Spill
	umull	r5, r8, r0, r1
	ldr	r1, [sp, #84]           @ 4-byte Reload
	adcs	r4, r5, r1
	ldr	r1, [r3, #20]
	str	r1, [sp, #84]           @ 4-byte Spill
	umull	r5, r6, r0, r1
	ldr	r1, [sp, #76]           @ 4-byte Reload
	adcs	r5, r5, r1
	ldr	r1, [r3, #24]
	umull	r3, r2, r0, r1
	ldr	r0, [sp, #28]           @ 4-byte Reload
	str	r1, [sp, #76]           @ 4-byte Spill
	ldr	r1, [sp, #24]           @ 4-byte Reload
	adcs	r0, r3, r0
	adc	r3, r1, #0
	ldr	r1, [sp, #20]           @ 4-byte Reload
	adds	r11, r11, r1
	adcs	r1, r9, lr
	str	r1, [sp, #28]           @ 4-byte Spill
	ldr	r1, [sp, #16]           @ 4-byte Reload
	adcs	r1, r7, r1
	ldr	r7, [sp, #80]           @ 4-byte Reload
	str	r1, [sp, #24]           @ 4-byte Spill
	adcs	r1, r4, r10
	str	r1, [sp, #20]           @ 4-byte Spill
	adcs	r1, r5, r8
	ldr	r5, [sp, #48]           @ 4-byte Reload
	adcs	r0, r0, r6
	str	r1, [sp, #16]           @ 4-byte Spill
	ldr	r1, [sp, #96]           @ 4-byte Reload
	str	r0, [sp, #12]           @ 4-byte Spill
	adc	r0, r3, r2
	ldr	r2, [sp, #52]           @ 4-byte Reload
	str	r0, [sp, #8]            @ 4-byte Spill
